(lp1
(lp2
(lp3
I1
aI5
aI3
aI2
aI4
aI0
aa(lp4
I2
aI11
aI6
aI21
aI13
aI12
aI18
aI0
aI19
aI4
aI17
aI9
aI5
aI22
aI7
aI14
aI3
aI15
aI10
aI20
aI8
aI16
aI1
aa(lp5
I6
aI9
aI13
aI11
aI1
aI7
aI8
aI2
aI16
aI3
aI4
aI15
aI14
aI12
aI5
aI10
aI17
aI0
aa(lp6
I1
aI6
aI3
aI2
aI4
aI5
aI0
aa(lp7
I1
aI8
aI7
aI2
aI4
aI14
aI13
aI9
aI6
aI5
aI11
aI12
aI3
aI10
aI0
aa(lp8
I1
aI13
aI7
aI11
aI6
aI9
aI3
aI2
aI4
aI5
aI12
aI8
aI10
aI0
aa(lp9
I2
aI33
aI5
aI17
aI21
aI32
aI14
aI12
aI16
aI25
aI6
aI24
aI0
aI28
aI10
aI11
aI26
aI7
aI22
aI3
aI19
aI31
aI13
aI20
aI15
aI9
aI30
aI18
aI27
aI8
aI23
aI4
aI29
aI1
aa(lp10
I2
aI0
aI5
aI4
aI7
aI6
aI3
aI8
aI1
aa(lp11
I6
aI3
aI4
aI1
aI5
aI2
aI0
aa(lp12
I5
aI1
aI3
aI4
aI2
aI6
aI0
aa(lp13
I14
aI6
aI0
aI11
aI7
aI1
aI4
aI3
aI13
aI10
aI9
aI8
aI12
aI5
aI2
aa(lp14
I2
aI12
aI4
aI8
aI13
aI5
aI0
aI11
aI7
aI9
aI3
aI10
aI15
aI6
aI14
aI1
aa(lp15
I15
aI5
aI8
aI14
aI4
aI13
aI6
aI12
aI1
aI2
aI11
aI10
aI3
aI7
aI9
aI0
aa(lp16
I1
aI10
aI4
aI6
aI3
aI9
aI5
aI7
aI2
aI8
aI0
aa(lp17
I2
aI13
aI19
aI8
aI3
aI9
aI12
aI16
aI5
aI17
aI7
aI10
aI14
aI0
aI4
aI11
aI15
aI18
aI6
aI1
aa(lp18
I1
aI2
aI3
aI4
aI5
aI0
aa(lp19
I2
aI13
aI1
aI12
aI6
aI9
aI14
aI3
aI4
aI5
aI8
aI11
aI7
aI10
aI0
aa(lp20
I1
aI12
aI20
aI5
aI6
aI13
aI7
aI11
aI4
aI15
aI19
aI18
aI17
aI10
aI8
aI16
aI3
aI9
aI14
aI2
aI0
aa(lp21
I4
aI7
aI8
aI1
aI2
aI10
aI5
aI6
aI3
aI9
aI0
aa(lp22
I1
aI6
aI17
aI10
aI12
aI5
aI2
aI4
aI13
aI14
aI3
aI7
aI11
aI16
aI8
aI9
aI15
aI0
aa(lp23
I1
aI3
aI13
aI6
aI4
aI12
aI9
aI7
aI10
aI2
aI5
aI14
aI8
aI11
aI0
aa(lp24
I1
aI4
aI5
aI2
aI3
aI0
aa(lp25
I3
aI6
aI14
aI1
aI5
aI7
aI9
aI11
aI13
aI0
aI8
aI12
aI10
aI4
aI2
aa(lp26
I1
aI2
aI5
aI8
aI6
aI4
aI3
aI7
aI0
aa(lp27
I1
aI5
aI4
aI9
aI6
aI8
aI2
aI7
aI3
aI0
aa(lp28
I3
aI23
aI13
aI18
aI10
aI7
aI26
aI6
aI25
aI5
aI15
aI14
aI20
aI0
aI9
aI16
aI11
aI24
aI1
aI8
aI17
aI19
aI12
aI22
aI4
aI21
aI2
aa(lp29
I1
aI7
aI2
aI5
aI3
aI4
aI6
aI0
aa(lp30
I1
aI5
aI7
aI3
aI6
aI2
aI4
aI0
aa(lp31
I1
aI2
aI6
aI4
aI3
aI5
aI0
aa(lp32
I1
aI6
aI2
aI10
aI3
aI5
aI14
aI8
aI9
aI13
aI12
aI4
aI7
aI11
aI0
aa(lp33
I2
aI6
aI11
aI0
aI5
aI8
aI3
aI10
aI7
aI9
aI4
aI1
aa(lp34
I4
aI5
aI14
aI6
aI9
aI17
aI10
aI3
aI13
aI8
aI1
aI11
aI7
aI0
aI16
aI12
aI15
aI2
aa(lp35
I6
aI4
aI27
aI5
aI2
aI21
aI24
aI16
aI32
aI9
aI7
aI11
aI31
aI23
aI29
aI14
aI0
aI25
aI13
aI19
aI17
aI26
aI1
aI12
aI22
aI20
aI10
aI15
aI30
aI8
aI18
aI28
aI3
aa(lp36
I1
aI4
aI2
aI3
aI5
aI0
aa(lp37
I1
aI9
aI2
aI3
aI6
aI5
aI8
aI4
aI7
aI0
aa(lp38
I1
aI2
aI0
aa(lp39
I2
aI10
aI9
aI16
aI6
aI11
aI4
aI15
aI8
aI13
aI3
aI14
aI7
aI5
aI12
aI1
aI0
aa(lp40
I3
aI13
aI4
aI6
aI19
aI7
aI18
aI12
aI17
aI9
aI5
aI2
aI15
aI11
aI16
aI10
aI8
aI1
aI14
aI0
aa(lp41
I4
aI35
aI18
aI26
aI2
aI6
aI32
aI14
aI11
aI15
aI24
aI0
aI7
aI10
aI27
aI21
aI30
aI34
aI33
aI12
aI19
aI16
aI25
aI23
aI31
aI17
aI9
aI29
aI1
aI20
aI5
aI8
aI28
aI13
aI22
aI3
aa(lp42
I1
aI7
aI10
aI6
aI4
aI9
aI8
aI3
aI5
aI2
aI0
aa(lp43
I3
aI2
aI5
aI1
aI7
aI4
aI6
aI0
aa(lp44
I2
aI6
aI4
aI21
aI20
aI18
aI14
aI11
aI15
aI0
aI5
aI9
aI19
aI13
aI16
aI7
aI8
aI12
aI10
aI3
aI17
aI1
aa(lp45
I3
aI14
aI0
aI9
aI18
aI13
aI6
aI16
aI1
aI11
aI8
aI4
aI7
aI19
aI12
aI17
aI10
aI5
aI15
aI2
aa(lp46
I1
aI2
aI12
aI8
aI9
aI3
aI5
aI7
aI11
aI6
aI4
aI10
aI0
aa(lp47
I1
aI3
aI5
aI10
aI7
aI9
aI2
aI4
aI6
aI8
aI0
aa(lp48
I1
aI20
aI0
aI8
aI13
aI5
aI19
aI11
aI4
aI18
aI10
aI17
aI7
aI6
aI14
aI16
aI9
aI3
aI12
aI15
aI2
aa(lp49
I3
aI4
aI1
aI12
aI21
aI13
aI7
aI15
aI2
aI9
aI5
aI20
aI14
aI8
aI11
aI19
aI10
aI6
aI16
aI17
aI18
aI0
aa(lp50
I1
aI2
aI4
aI3
aI5
aI0
aa(lp51
I1
aI4
aI5
aI10
aI2
aI6
aI9
aI8
aI7
aI3
aI0
aa(lp52
I1
aI3
aI2
aI4
aI0
aa(lp53
I1
aI14
aI13
aI6
aI3
aI4
aI12
aI8
aI7
aI2
aI5
aI11
aI9
aI10
aI0
aa(lp54
I2
aI17
aI21
aI13
aI11
aI18
aI7
aI15
aI6
aI12
aI10
aI9
aI3
aI20
aI4
aI19
aI1
aI14
aI16
aI5
aI8
aI0
aa(lp55
I3
aI8
aI1
aI2
aI4
aI7
aI5
aI6
aI0
aa(lp56
I2
aI26
aI16
aI21
aI25
aI12
aI15
aI10
aI5
aI20
aI9
aI14
aI4
aI24
aI13
aI6
aI23
aI8
aI18
aI7
aI17
aI3
aI11
aI22
aI1
aI19
aI0
aa(lp57
I2
aI6
aI3
aI5
aI12
aI4
aI1
aI9
aI11
aI7
aI8
aI10
aI0
aa(lp58
I1
aI3
aI6
aI2
aI4
aI5
aI0
aa(lp59
I8
aI2
aI5
aI7
aI3
aI1
aI4
aI6
aI0
aa(lp60
I2
aI3
aI13
aI0
aI4
aI8
aI12
aI9
aI6
aI11
aI7
aI10
aI5
aI1
aa(lp61
I2
aI4
aI7
aI5
aI6
aI8
aI3
aI1
aI0
aa(lp62
I2
aI10
aI4
aI1
aI9
aI3
aI6
aI5
aI7
aI8
aI0
aa(lp63
I10
aI2
aI4
aI9
aI12
aI6
aI1
aI8
aI3
aI11
aI5
aI7
aI0
aa(lp64
I1
aI4
aI8
aI11
aI13
aI2
aI5
aI10
aI7
aI12
aI6
aI3
aI9
aI0
aa(lp65
I1
aI9
aI4
aI2
aI3
aI12
aI6
aI11
aI5
aI10
aI7
aI8
aI0
aa(lp66
I2
aI3
aI5
aI0
aI4
aI1
aa(lp67
I1
aI3
aI6
aI4
aI2
aI5
aI0
aa(lp68
I1
aI4
aI3
aI6
aI2
aI5
aI0
aa(lp69
I1
aI5
aI6
aI3
aI9
aI7
aI2
aI4
aI8
aI0
aa(lp70
I3
aI7
aI11
aI5
aI8
aI4
aI2
aI10
aI1
aI6
aI9
aI0
aa(lp71
I4
aI13
aI27
aI17
aI3
aI9
aI11
aI26
aI5
aI10
aI23
aI31
aI15
aI14
aI18
aI30
aI29
aI16
aI1
aI28
aI19
aI8
aI25
aI20
aI24
aI7
aI2
aI6
aI12
aI22
aI21
aI0
aa(lp72
I7
aI4
aI0
aI3
aI8
aI2
aI10
aI6
aI5
aI9
aI1
aa(lp73
I2
aI6
aI9
aI4
aI3
aI14
aI5
aI11
aI0
aI8
aI10
aI12
aI7
aI13
aI1
aa(lp74
I3
aI18
aI10
aI26
aI9
aI20
aI8
aI15
aI11
aI6
aI25
aI1
aI19
aI16
aI4
aI13
aI7
aI5
aI24
aI12
aI23
aI17
aI14
aI21
aI0
aI22
aI2
aa(lp75
I6
aI2
aI4
aI1
aI3
aI5
aI0
aa(lp76
I1
aI10
aI4
aI9
aI2
aI7
aI6
aI5
aI3
aI8
aI0
aa(lp77
I3
aI9
aI1
aI5
aI8
aI11
aI12
aI7
aI0
aI4
aI6
aI10
aI2
aa(lp78
I2
aI6
aI11
aI3
aI5
aI4
aI10
aI0
aI7
aI8
aI9
aI1
aa(lp79
I2
aI6
aI13
aI12
aI11
aI10
aI4
aI9
aI8
aI3
aI1
aI7
aI5
aI0
aa(lp80
I2
aI10
aI15
aI4
aI13
aI5
aI9
aI1
aI16
aI6
aI7
aI12
aI11
aI8
aI3
aI14
aI0
aa(lp81
I1
aI4
aI6
aI2
aI3
aI5
aI0
aa(lp82
I1
aI5
aI2
aI3
aI4
aI0
aa(lp83
I16
aI8
aI13
aI2
aI4
aI0
aI9
aI18
aI12
aI10
aI14
aI1
aI6
aI11
aI17
aI7
aI5
aI15
aI3
aa(lp84
I2
aI4
aI10
aI3
aI5
aI11
aI6
aI9
aI0
aI7
aI8
aI1
aa(lp85
I1
aI6
aI3
aI4
aI2
aI5
aI0
aa(lp86
I15
aI14
aI2
aI11
aI3
aI8
aI18
aI9
aI17
aI10
aI5
aI16
aI1
aI7
aI13
aI4
aI6
aI12
aI0
aa(lp87
I2
aI1
aI3
aI6
aI9
aI5
aI4
aI7
aI8
aI0
aa(lp88
I1
aI35
aI20
aI14
aI25
aI11
aI34
aI5
aI13
aI15
aI33
aI2
aI10
aI17
aI26
aI6
aI12
aI32
aI21
aI19
aI8
aI31
aI18
aI23
aI22
aI3
aI30
aI4
aI28
aI16
aI24
aI29
aI7
aI9
aI27
aI0
aa(lp89
I1
aI14
aI6
aI13
aI7
aI4
aI12
aI11
aI2
aI10
aI5
aI8
aI3
aI9
aI0
aa(lp90
I8
aI11
aI2
aI5
aI3
aI1
aI4
aI7
aI9
aI6
aI10
aI0
aa(lp91
I2
aI6
aI9
aI0
aI3
aI5
aI7
aI8
aI4
aI1
aa(lp92
I7
aI2
aI6
aI1
aI4
aI3
aI5
aI0
aa(lp93
I2
aI0
aI3
aI6
aI10
aI7
aI9
aI4
aI5
aI8
aI1
aa(lp94
I9
aI14
aI11
aI7
aI19
aI1
aI4
aI18
aI8
aI13
aI5
aI10
aI17
aI2
aI16
aI3
aI12
aI6
aI15
aI0
aa(lp95
I1
aI10
aI6
aI4
aI9
aI5
aI2
aI7
aI3
aI8
aI0
aa(lp96
I5
aI0
aI6
aI2
aI4
aI9
aI7
aI8
aI3
aI1
aa(lp97
I1
aI3
aI2
aI0
aa(lp98
I2
aI8
aI12
aI1
aI10
aI15
aI9
aI4
aI14
aI7
aI6
aI11
aI3
aI13
aI5
aI0
aa(lp99
I4
aI1
aI11
aI10
aI9
aI6
aI2
aI13
aI8
aI3
aI7
aI5
aI12
aI0
aa(lp100
I1
aI9
aI6
aI12
aI5
aI4
aI2
aI8
aI11
aI7
aI3
aI10
aI0
aa(lp101
I1
aI4
aI3
aI2
aI5
aI10
aI7
aI8
aI6
aI9
aI0
aa(lp102
I1
aI3
aI8
aI21
aI2
aI13
aI9
aI16
aI5
aI19
aI12
aI11
aI17
aI4
aI7
aI6
aI14
aI20
aI15
aI10
aI18
aI0
aaa(lp103
(lp104
V.
aVI
aValuminum
p105
aVthe
p106
aVbody
p107
aVliked
p108
aa(lp109
V,
aV.
aVFrom
p110
aVI
aVabout
p111
aVbeen
p112
aVbuild
p113
aVfrom
p114
aVfrom
p115
aVhas
p116
aVhave
p117
aVthe
p118
aVthe
p119
aVto
p120
aVwhat
p121
aVwould
p122
aVApple
p123
aVit
p124
aVperformance
p125
aVeverything
p126
aVexpected
p127
aVquality
p128
aVsub-par
p129
aa(lp130
V.
aVabout
p131
aVis
p132
aVit
p133
aVjust
p134
aVof
p135
aVpretty
p136
aVthe
p137
aVcomputer
p138
aVmuch
p139
aVno
p140
aVelse
p141
aVout
p142
aVeverything
p143
aVworking
p144
aVstops
p145
aVgood
p146
aVwere
p147
aa(lp148
V.
aVOriginally
p149
aVfor
p150
aVit
p151
aVmy
p152
aVwife
p153
aVbought
p154
aa(lp155
V.
aVIt
p156
aVa
aVbefore
p157
aVgreat
p158
aVone
p159
aVthan
p160
aVtruly
p161
aVwas
p162
aVless
p163
aVtax
p164
aVthousand
p165
aVbucks
p166
aVcosting
p167
aVcomputer
p168
aa(lp169
V!
aVI
aVam
p170
aVand
p171
aVcompletely
p172
aVin
p173
aVon
p174
aVthis
p175
aVwith
p176
aVSaturday
p177
aVit
p178
aVlaptop
p179
aVlove
p180
aVbought
p181
aa(lp182
V,
aV.
aVI
aVand
p183
aVcould
p184
aVhow
p185
aVno
p186
aVof
p187
aVof
p188
aVonly
p189
aVor
p190
aVother
p191
aVsince
p192
aVthat
p193
aVthat
p194
aVthe
p195
aVthere
p196
aVthey
p197
aVthis
p198
aVwas
p199
aVwas
p200
aVwould
p201
aVdamage
p202
aVdamage
p203
aVscratches
p204
aVare
p205
aVsigns
p206
aVtype
p207
aVdents
p208
aVhappen
p209
aVway
p210
aVtold
p211
aVdetermine
p212
aVasked
p213
aa(lp214
V,
aV.
aVAlso
p215
aVa
aVextended
p216
aVthe
p217
aVwas
p218
aVwarranty
p219
aVproblem
p220
aa(lp221
V!
aVand
p222
aVgreat
p223
aVup
p224
aVfast
p225
aVruns
p226
aVBoots
p227
aa(lp228
V!
aVand
p229
aVis
p230
aVthe
p231
aVscreen
p232
aVLightweight
p233
aVbeautiful
p234
aa(lp235
V,
aV,
aV.
aVI
aVand
p236
aVit
p237
aVit
p238
aVit
p239
aVn't
p240
aVwo
p241
aVyou
p242
aVlove
p243
aVregret
p244
aVpromise
p245
aVBuy
p246
aa(lp247
V,
aV.
aVIf
p248
aVbe
p249
aVdo
p250
aVfingerprints
p251
aVfor
p252
aVmight
p253
aVn't
p254
aVnot
p255
aVthe
p256
aVthis
p257
aVyou
p258
aVlike
p259
aVyou
p260
aVlaptop
p261
aa(lp262
V.
aVand
p263
aVfax
p264
aVin
p265
aVstandard
p266
aVtech
p267
aVthe
p268
aVto
p269
aVsupport
p270
aVus
p271
aVback
p272
aVit
p273
aVform
p274
aVemail
p275
aV,
aVCall
p276
aa(lp277
V.
aVI
aVI
aVand
p278
aVcontact
p279
aVhow
p280
aVHP
p281
aVunhappy
p282
aVam
p283
aVshare
p284
aVdid
p285
aa(lp286
V,
aV.
aVThe
p287
aVa
aVall
p288
aVand
p289
aVgreat
p290
aVin
p291
aVin
p292
aVnice
p293
aVthe
p294
aVthe
p295
aVtwin
p296
aVMacbook
p297
aVbox
p298
aVfunctions
p299
aVpacking
p300
aVsealed
p301
aVworks
p302
aVarrived
p303
aa(lp304
V.
aVThis
p305
aVis
p306
aVmy
p307
aVsecond
p308
aVMacBook
p309
aa(lp310
V.
aVI
aVThe
p311
aVabove
p312
aVand
p313
aVbeyond
p314
aVfrom
p315
aVof
p316
aVthe
p317
aVToshiba
p318
aVduty
p319
aVcall
p320
aVreceived
p321
aVservice
p322
aVwent
p323
aa(lp324
V.
aVI
aVabout
p325
aVi
aVinternet
p326
aVit
p327
aVjust
p328
aVof
p329
aVonly
p330
aVreally
p331
aVthe
p332
aVthe
p333
aVwould
p334
aVbecause
p335
aVcare
p336
aVspeed
p337
aVthing
p338
aVthats
p339
aVbecause
p340
aVprobably
p341
aVrecommend
p342
aa(lp343
V.
aV3rd
p344
aVApple
p345
aVMacBook
p346
aVThis
p347
aVand
p348
aVfirst
p349
aVis
p350
aVmy
p351
aVPro
p352
aVLaptop
p353
aa(lp354
V.
aVI
aVa
aVand
p355
aVfew
p356
aVfor
p357
aVhave
p358
aVi
aVim
p359
aVpretty
p360
aVthis
p361
aVwould
p362
aVlaptop
p363
aVmonths
p364
aVnow
p365
aVsatisfied
p366
aVsay
p367
aVhad
p368
aa(lp369
V.
aVThe
p370
aVdoes
p371
aVlove
p372
aVmy
p373
aVn't
p374
aVof
p375
aVthis
p376
aVvery
p377
aVwith
p378
aVlaptop
p379
aVlong
p380
aVrelationship
p381
aVpart
p382
aVtake
p383
aa(lp384
V.
aVThe
p385
aVgreat
p386
aVcolors
p387
aVscreen
p388
aVshows
p389
aa(lp390
V,
aV,
aV.
aVDells
p391
aVFantastic
p392
aVHPs
p393
aVare
p394
aVare
p395
aVbut
p396
aVn't
p397
aVor
p398
aVthat
p399
aVMacs
p400
aVgood
p401
aVok
p402
aa(lp403
V!
aVI
aVam
p404
aVlittle
p405
aVmy
p406
aVtotally
p407
aVwith
p408
aVtoshie
p409
aVsatisfied
p410
aa(lp411
V.
aVI
aVand
p412
aVdown
p413
aVfinally
p414
aVhad
p415
aVmy
p416
aVbroke
p417
aVlimit
p418
aVreached
p419
aa(lp420
V,
aV,
aV.
aVMy
p421
aVanother
p422
aVas
p423
aVas
p424
aVbeen
p425
aVbut
p426
aVgiven
p427
aVhas
p428
aVhorrible
p429
aVjust
p430
aVof
p431
aVstock
p432
aVthe
p433
aVtheir
p434
aVthis
p435
aVSony
p436
aVmachine
p437
aVmarket
p438
aVplunge
p439
aVcaused
p440
aVopinion
p441
aVsupport
p442
aVfast
p443
aVdropping
p444
aa(lp445
V.
aVI
aVand
p446
aVand
p447
aVno
p448
aVwaited
p449
aVlaptop
p450
aVwaited
p451
aa(lp452
V.
aVEverything
p453
aVand
p454
aVapart
p455
aVexternally
p456
aVis
p457
aVinternally
p458
aVfalling
p459
aa(lp460
V.
aVI
aValso
p461
aVglass
p462
aVthe
p463
aVscreen
p464
aVliked
p465
aa(lp466
V.
aVThe
p467
aVgraphic
p468
aVis
p469
aVon
p470
aVpretty
p471
aVswitchable
p472
aVthe
p473
aVwhen
p474
aVyou
p475
aVcard
p476
aVlaptop
p477
aVgaming
p478
aVwant
p479
aVsweet
p480
aa(lp481
V,
aV.
aVIt
p482
aVcan
p483
aVeasily
p484
aVso
p485
aVsuper
p486
aVthe
p487
aVyou
p488
aVfingerprints
p489
aVsee
p490
aVshiny
p491
aa(lp492
V'm
p493
aV,
aV.
aVI
aVThe
p494
aVbattery
p495
aVhas
p496
aVi
aVit
p497
aVnot
p498
aVsince
p499
aVso
p500
aVwith
p501
aVbought
p502
aVlife
p503
aVthat
p504
aVthrilled
p505
aVdecreased
p506
aa(lp507
V$
aV,
aV,
aV.
aVI
aVToshiba
p508
aVWhen
p509
aVand
p510
aVany
p511
aVanything
p512
aVdid
p513
aVeven
p514
aVeven
p515
aVfor
p516
aVme
p517
aVn't
p518
aVnot
p519
aVphone
p520
aVtechnical
p521
aVthe
p522
aVthey
p523
aVthey
p524
aVthough
p525
aVto
p526
aVwould
p527
aV35
p528
aVcall
p529
aVcalled
p530
aVsupport
p531
aVcharge
p532
aVoffer
p533
aVtried
p534
aVdo
p535
aa(lp536
V.
aVMy
p537
aVis
p538
aVvery
p539
aVHP
p540
aVheavy
p541
aa(lp542
V.
aVThe
p543
aVand
p544
aVfeatures
p545
aVmy
p546
aVthan
p547
aVmore
p548
aVneeds
p549
aVmet
p550
aVprice
p551
aa(lp552
V!
aVbig
p553
aVmistake
p554
aa(lp555
V.
aV1764
p556
aVBest
p557
aVand
p558
aVand
p559
aVanother
p560
aVas
p561
aVme
p562
aVthe
p563
aVwas
p564
aVBuy
p565
aValways
p566
aVmodel
p567
aVreturn
p568
aVgave
p569
aVaccepted
p570
aVgreat
p571
aa(lp572
V...
p573
aV1
aVafter
p574
aVand
p575
aVand
p576
aVback
p577
aVbest
p578
aVboth
p579
aVfor
p580
aVit
p581
aVit
p582
aVonly
p583
aVto
p584
aVdell
p585
aVhour
p586
aVi
aVhad
p587
aVtake
p588
aVrefused
p589
aVbuy
p590
aa(lp591
V,
aV,
aV,
aV.
aVI
aVI
aVafter
p592
aVand
p593
aVcan
p594
aVcoffee
p595
aVfor
p596
aVfrom
p597
aVit
p598
aVit
p599
aVit
p600
aVmy
p601
aVmy
p602
aVmy
p603
aVmy
p604
aVon
p605
aVso
p606
aVthan
p607
aVthere
p608
aVto
p609
aVdesk
p610
aVlap
p611
aVleg
p612
aVless
p613
aVplace
p614
aVtable
p615
aV5
aVclean
p616
aVlifting
p617
aVputting
p618
aVsecond
p619
aVburned
p620
aa(lp621
V!
aVI
aVagain
p622
aVand
p623
aVlap
p624
aVover
p625
aVthis
p626
aVwould
p627
aVover
p628
aVtop
p629
aVbuy
p630
aa(lp631
V.
aVare
p632
aVmouse
p633
aVthe
p634
aVto
p635
aVbuttons
p636
aVpush
p637
aVhard
p638
aa(lp639
V,
aV.
aVI
aVPC
p640
aVactually
p641
aVand
p642
aVcan
p643
aVlike
p644
aVmy
p645
aVnot
p646
aVold
p647
aVthis
p648
aVtired
p649
aVwith
p650
aVwith
p651
aVMAC
p652
aVit
p653
aVlaptop
p654
aVdone
p655
aVfight
p656
aVwork
p657
aVget
p658
aa(lp659
V're
p660
aV,
aV.
aVIf
p661
aVa
aVa
aVbe
p662
aVgood
p663
aVis
p664
aVnot
p665
aVon
p666
aVthis
p667
aVto
p668
aVto
p669
aVyou
p670
aVdesk
p671
aVmobile
p672
aVsit
p673
aVwanting
p674
aVlaptop
p675
aa(lp676
V.
aVI
aValso
p677
aVand
p678
aVany
p679
aVit
p680
aVme
p681
aVnever
p682
aVwith
p683
aVit
p684
aVproblems
p685
aVgives
p686
aVtravel
p687
aa(lp688
V.
aVJust
p689
aVand
p690
aVdo
p691
aVmoney
p692
aVn't
p693
aVon
p694
aVyour
p695
aVthis
p696
aVtime
p697
aVwaste
p698
aa(lp699
V,
aV-LRB-
p700
aV.
aVa
aVback
p701
aVcould
p702
aVonly
p703
aVthat
p704
aVtheir
p705
aVwhat
p706
aVyou
p707
aVyou
p708
aVcomputer
p709
aVstaff
p710
aVthey
p711
aVis
p712
aVknow
p713
aVfeel
p714
aVmaking
p715
aVsend
p716
aVBeware
p717
aa(lp718
V!
aV'm
p719
aV,
aVAnd
p720
aVI
aVa
aVat
p721
aVbloody
p722
aVdid
p723
aVfor
p724
aVme
p725
aVn't
p726
aVstill
p727
aVthe
p728
aVwhich
p729
aVfinancing
p730
aVleast
p731
aVthree
p732
aVyears
p733
aVlast
p734
aVproduct
p735
aVpaying
p736
aa(lp737
V.
aVGames
p738
aVbeing
p739
aVmain
p740
aVthe
p741
aVissue
p742
aa(lp743
V.
aVand
p744
aVand
p745
aVit
p746
aVits
p747
aVreally
p748
aVyou
p749
aVbuying
p750
aVregret
p751
aVwont
p752
aVcheap
p753
aa(lp754
V!
aVIt
p755
aVover
p756
aVwas
p757
aVrated
p758
aa(lp759
V.
aVI
aVa
aVanyone
p760
aVcan
p761
aVgreat
p762
aVhow
p763
aVis
p764
aVthis
p765
aVworth
p766
aVpurchasing
p767
aVproduct
p768
aVthink
p769
aVunderstand
p770
aVdont
p771
aa(lp772
V.
aVGarageBand
p773
aVMy
p774
aVa
aVand
p775
aVand
p776
aVand
p777
aVas
p778
aVedit
p779
aVin
p780
aVis
p781
aVsame
p782
aVshe
p783
aVthe
p784
aVto
p785
aVme
p786
aVrecord
p787
aVsister
p788
aVMac
p789
aVuses
p790
aVband
p791
aVhas
p792
aa(lp793
V.
aV:
aVDo
p794
aVOther
p795
aVnot
p796
aVthis
p797
aVproduct
p798
aVpurchase
p799
aVThoughts
p800
aa(lp801
V.
aVabout
p802
aVand
p803
aVare
p804
aVbest
p805
aVbook
p806
aVfor
p807
aVif
p808
aVin
p809
aVis
p810
aVmac
p811
aVnot
p812
aVreally
p813
aVspecially
p814
aVthe
p815
aVthe
p816
aVvery
p817
aVyou
p818
aVcollege
p819
aVprice
p820
aVpro
p821
aVsexyy
p822
aVcaring
p823
aVstudents
p824
aVlaptop
p825
aV:D
p826
aVlooks
p827
aa(lp828
V.
aVI
aVThis
p829
aVa
aVand
p830
aVgreat
p831
aVis
p832
aVit
p833
aVto
p834
aVwould
p835
aVanyone
p836
aVrecommend
p837
aVlaptop
p838
aa(lp839
V!
aVThey
p840
aVa
aVdefinitely
p841
aVsuperior
p842
aVproduct
p843
aVhave
p844
aa(lp845
V.
aVfor
p846
aVit
p847
aVmostly
p848
aVoline
p849
aVto
p850
aVclasses
p851
aVuse
p852
aVBought
p853
aa(lp854
V,
aV.
aVThey
p855
aVare
p856
aVbut
p857
aVheat
p858
aVit
p859
aVto
p860
aVvery
p861
aVwhen
p862
aVemitting
p863
aVcomes
p864
aVdangerous
p865
aVwonderful
p866
aa(lp867
V.
aVHP
p868
aVMy
p869
aVand
p870
aVprevious
p871
aVwere
p872
aVwith
p873
aVpurchases
p874
aVDell
p875
aa(lp876
V.
aVHP
p877
aVI
aVafter
p878
aVan
p879
aVhigh
p880
aVmy
p881
aVschool
p882
aVgraduation
p883
aVright
p884
aVpurchased
p885
aa(lp886
V.
aVGateway
p887
aVand
p888
aVin
p889
aVmy
p890
aVof
p891
aVthe
p892
aV09
p893
aVNV78
p894
aVboyfriend
p895
aVMe
p896
aVnov
p897
aVbought
p898
aa(lp899
V.
aVIt
p900
aVand
p901
aVat
p902
aVis
p903
aVnot
p904
aVout
p905
aVto
p906
aVvery
p907
aVall
p908
aVhard
p909
aVuser
p910
aVfigure
p911
aVfriendly
p912
aa(lp913
V.
aVThe
p914
aVanother
p915
aVdriving
p916
aVis
p917
aVme
p918
aVthat
p919
aVthis
p920
aVlaptop
p921
aVprice
p922
aVpurchase
p923
aVmade
p924
aVinfluence
p925
aa(lp926
V-
aV.
aVCame
p927
aVfully
p928
aVgood
p929
aVloaded
p930
aa(lp931
V.
aVIt
p932
aVbe
p933
aVis
p934
aVto
p935
aVPORTABLE
p936
aVmeant
p937
aa(lp938
V.
aVThe
p939
aVas
p940
aVwas
p941
aVcomputer
p942
aVpromised
p943
aVdelivered
p944
aa(lp945
V.
aVThis
p946
aVan
p947
aVcomplete
p948
aVergonomic
p949
aVis
p950
aVthe
p951
aVto
p952
aVdesign
p953
aVopposite
p954
aa(lp955
V.
aV.
aV4
aVI
aVa
aVat
p956
aVbattery
p957
aVwould
p958
aVleast
p959
aVlife
p960
aVhr
p961
aVlike
p962
aa(lp963
V.
aVI
aVI
aVI
aVThe
p964
aVabout
p965
aVam
p966
aVand
p967
aVbe
p968
aVdo
p969
aVmy
p970
aVn't
p971
aVnot
p972
aVonly
p973
aVsometimes
p974
aVthat
p975
aVthat
p976
aVthat
p977
aVthere
p978
aVto
p979
aVto
p980
aVto
p981
aVable
p982
aVmac
p983
aVrun
p984
aVable
p985
aVlike
p986
aVthing
p987
aVwant
p988
aVprograms
p989
aVare
p990
aVis
p991
aa(lp992
V,
aV.
aVare
p993
aVmany
p994
aVonline
p995
aVsame
p996
aVthe
p997
aVLooking
p998
aVpeople
p999
aVproblem
p1000
aVhaving
p1001
aa(lp1002
V,
aV.
aVWireless
p1003
aVa
aVbeen
p1004
aVfor
p1005
aVhas
p1006
aVhave
p1007
aVlike
p1008
aVnot
p1009
aVsome
p1010
aVme
p1011
aVothers
p1012
aVmeantioned
p1013
aVissue
p1014
aa(lp1015
V's
p1016
aV,
aV.
aVMacBook
p1017
aVas
p1018
aVbackground
p1019
aVbattery
p1020
aVmany
p1021
aVof
p1022
aVout
p1023
aVquickly
p1024
aVshort
p1025
aVthat
p1026
aVthe
p1027
aVthe
p1028
aVtheir
p1029
aVwell
p1030
aVwithout
p1031
aVNotebooks
p1032
aVas
p1033
aVbecause
p1034
aVuser
p1035
aVknowlede
p1036
aVrun
p1037
aVprograms
p1038
aVlife
p1039
aVdie
p1040
aa(lp1041
V.
aVa
aVfor
p1042
aVgreat
p1043
aVsuch
p1044
aVprice
p1045
aVAll
p1046
aa(lp1047
V.
aVIt
p1048
aVand
p1049
aVdrive
p1050
aVgood
p1051
aVhard
p1052
aVof
p1053
aVplenty
p1054
aVspace
p1055
aVspeed
p1056
aVhas
p1057
aa(lp1058
V's
p1059
aV,
aV.
aVOverall
p1060
aVa
aVfor
p1061
aVgreat
p1062
aVit
p1063
aVthe
p1064
aVthough
p1065
aVdeal
p1066
aVmoney
p1067
aVspent
p1068
aa(lp1069
V,
aV.
aVA
aVbut
p1070
aVis
p1071
aVit
p1072
aVlittle
p1073
aVwell
p1074
aVworth
p1075
aVit
p1076
aVwell
p1077
aVpricey
p1078
aa(lp1079
V.
aVI
aVIn
p1080
aVas
p1081
aVas
p1082
aVeither
p1083
aVmy
p1084
aVexpected
p1085
aVfriendly
p1086
aVuser
p1087
aVnot
p1088
aVwas
p1089
aVit
p1090
aVopinion
p1091
aa(lp1092
V.
aV3rd
p1093
aVThe
p1094
aVeven
p1095
aVfor
p1096
aVis
p1097
aVit
p1098
aVmight
p1099
aVnot
p1100
aVso
p1101
aVtechnical
p1102
aVwell
p1103
aVas
p1104
aVdell
p1105
aVbother
p1106
aVservice
p1107
aVworld
p1108
aa(lp1109
V.
aVIt
p1110
aVa
aVsmart
p1111
aVwas
p1112
aVmove
p1113
aVdefinelty
p1114
aa(lp1115
V.
aVExcellent
p1116
aVfor
p1117
aVprocessing
p1118
aVdata
p1119
aVspeed
p1120
aa(lp1121
V'm
p1122
aV,
aV,
aV.
aVI
aVa
aVand
p1123
aVas
p1124
aVin
p1125
aVincredibly
p1126
aVthis
p1127
aVwith
p1128
aVwith
p1129
aVall
p1130
aVlaptop
p1131
aVwhole
p1132
aVAll
p1133
aVHP
p1134
aVdissatisfied
p1135
aa(lp1136
V,
aV.
aVThe
p1137
aVdo
p1138
aVdriver
p1139
aVn't
p1140
aVthe
p1141
aVvery
p1142
aVfrustrating
p1143
aVissue
p1144
aVupdates
p1145
aVfix
p1146
aa(lp1147
V.
aVIt
p1148
aVa
aVwork
p1149
aVworth
p1150
aVdamn
p1151
aVdoesnt
p1152
aa(lp1153
V.
aVin
p1154
aVin
p1155
aVis
p1156
aVon
p1157
aVother
p1158
aVour
p1159
aVremote
p1160
aVvery
p1161
aVwhen
p1162
aVwith
p1163
aVcamera
p1164
aVcampus
p1165
aVbuildings
p1166
aVbuilt
p1167
aVThe
p1168
aVtechs
p1169
aVchatting
p1170
aVuseful
p1171
aa(lp1172
V!
aV's
p1173
aVIt
p1174
aVa
aVa
aVfor
p1175
aVgreat
p1176
aVgreat
p1177
aVprice
p1178
aVproduct
p1179
aa(lp1180
V.
aVBut
p1181
aVa
aVactually
p1182
aVand
p1183
aVbecause
p1184
aVbut
p1185
aVfree
p1186
aVfull
p1187
aVfuture
p1188
aVhuge
p1189
aVis
p1190
aVit
p1191
aVit
p1192
aVmacbook
p1193
aVmay
p1194
aVof
p1195
aVprice
p1196
aVthat
p1197
aVthe
p1198
aVthe
p1199
aVwith
p1200
aVwould
p1201
aVyou
p1202
aVit
p1203
aVpro
p1204
aVtag
p1205
aVupdates
p1206
aVmost
p1207
aVhas
p1208
aVneed
p1209
aVsoftware
p1210
aVcomes
p1211
aVhave
p1212
aVdifferent
p1213
aVsee
p1214
aa(lp1215
V.
aVDell
p1216
aVI
aVa
aVfor
p1217
aVthem
p1218
aVto
p1219
aVus
p1220
aVwith
p1221
aVproblem
p1222
aVcalled
p1223
aVeverytime
p1224
aVeverything
p1225
aVcharge
p1226
aVwanted
p1227
aa(lp1228
V.
aVA
aVBEEN
p1229
aVBUT
p1230
aVHEADACHE
p1231
aVNOTHING
p1232
aVPURCHASED
p1233
aVSINCE
p1234
aVTHIS
p1235
aVWE
p1236
aVIT
p1237
aVHAS
p1238
aa(lp1239
V,
aV.
aVNot
p1240
aVbut
p1241
aVeither
p1242
aVnot
p1243
aVsuper
p1244
aVsuper
p1245
aVexpensive
p1246
aVfancy
p1247
aa(lp1248
V.
aVand
p1249
aVgood
p1250
aVto
p1251
aVwasy
p1252
aVuse
p1253
aVsized
p1254
aVKeyboard
p1255
aa(lp1256
V's
p1257
aV.
aVIt
p1258
aVa
aVbasic
p1259
aVcomputing
p1260
aVgreat
p1261
aVto
p1262
aVneeds
p1263
aVhandle
p1264
aVprodcut
p1265
aa(lp1266
V.
aVand
p1267
aVi
aVit
p1268
aVit
p1269
aVjust
p1270
aVof
p1271
aVreally
p1272
aVreally
p1273
aVthe
p1274
aVthe
p1275
aVwas
p1276
aVwould
p1277
aVfast
p1278
aVlaptop
p1279
aVrun
p1280
aVthought
p1281
aVway
p1282
aVgoes
p1283
aVgood
p1284
aa(lp1285
V.
aVIm
p1286
aVgreat
p1287
aVin
p1288
aVit
p1289
aVsuch
p1290
aVthat
p1291
aVfeatures
p1292
aVit
p1293
aVhas
p1294
aVglad
p1295
aa(lp1296
V's
p1297
aV.
aVa
aVaround
p1298
aVgreat
p1299
aVit
p1300
aVjust
p1301
aVto
p1302
aVhave
p1303
aVtoy
p1304
aa(lp1305
V.
aVGreat
p1306
aVtoo
p1307
aVwifi
p1308
aa(lp1309
V.
aVI
aVWhen
p1310
aVand
p1311
aVcompletely
p1312
aVit
p1313
aVmy
p1314
aVoff
p1315
aVthis
p1316
aVto
p1317
aVwould
p1318
aVcomputer
p1319
aVhappened
p1320
aVrestart
p1321
aVpower
p1322
aVhave
p1323
aa(lp1324
V.
aVDell
p1325
aVDell
p1326
aVI
aVThe
p1327
aVever
p1328
aVfirst
p1329
aVhad
p1330
aVthat
p1331
aVthe
p1332
aVwas
p1333
aVmini
p1334
aVpurchased
p1335
aVproduct
p1336
aa(lp1337
V.
aVMy
p1338
aVa
aVan
p1339
aVbeing
p1340
aVfrom
p1341
aVhas
p1342
aVto
p1343
aVtrusted
p1344
aVMac
p1345
aVadversary
p1346
aVfriend
p1347
aVgone
p1348
aa(lp1349
V.
aVI
aVa
aVbeen
p1350
aVhave
p1351
aVmac
p1352
aVmid
p1353
aVsince
p1354
aVthe
p1355
aV90s
p1356
aVuser
p1357
aa(lp1358
V.
aVI
aVa
aValways
p1359
aVand
p1360
aVand
p1361
aVbeen
p1362
aVhave
p1363
aVhave
p1364
aVhome
p1365
aVits
p1366
aVthe
p1367
aVto
p1368
aVtower
p1369
aVvery
p1370
aVwith
p1371
aVPC
p1372
aVlaptop
p1373
aVperformance
p1374
aVjumped
p1375
aVsatisfied
p1376
aVused
p1377
aaa(lp1378
(lp1379
(lp1380
a(lp1381
a(lp1382
a(lp1383
a(lp1384
I3
aI2
aa(lp1385
I1
aI4
aI0
aaa(lp1386
(lp1387
a(lp1388
a(lp1389
a(lp1390
a(lp1391
a(lp1392
a(lp1393
a(lp1394
a(lp1395
a(lp1396
a(lp1397
a(lp1398
a(lp1399
a(lp1400
a(lp1401
a(lp1402
a(lp1403
I8
aa(lp1404
I4
aa(lp1405
I13
aI12
aa(lp1406
I17
aa(lp1407
I7
aI14
aI3
aI15
aI10
aI16
aa(lp1408
I2
aI11
aI6
aI18
aa(lp1409
I21
aI0
aI19
aI9
aI5
aI20
aI1
aaa(lp1410
(lp1411
a(lp1412
a(lp1413
a(lp1414
a(lp1415
a(lp1416
a(lp1417
a(lp1418
a(lp1419
I1
aI7
aa(lp1420
I6
aa(lp1421
I5
aa(lp1422
I8
aa(lp1423
I10
aa(lp1424
I9
aI11
aa(lp1425
I12
aa(lp1426
I3
aI4
aI14
aa(lp1427
I13
aI2
aI15
aa(lp1428
I16
aI0
aaa(lp1429
(lp1430
a(lp1431
a(lp1432
a(lp1433
a(lp1434
a(lp1435
I2
aI4
aa(lp1436
I1
aI3
aI5
aI0
aaa(lp1437
(lp1438
a(lp1439
a(lp1440
a(lp1441
a(lp1442
a(lp1443
a(lp1444
a(lp1445
a(lp1446
a(lp1447
I6
aa(lp1448
I3
aa(lp1449
I9
aI5
aa(lp1450
I11
aa(lp1451
I12
aI10
aa(lp1452
I1
aI8
aI7
aI2
aI4
aI13
aI0
aaa(lp1453
(lp1454
a(lp1455
a(lp1456
a(lp1457
a(lp1458
a(lp1459
a(lp1460
a(lp1461
a(lp1462
a(lp1463
I6
aa(lp1464
I8
aa(lp1465
I7
aa(lp1466
I2
aI4
aI5
aI10
aa(lp1467
I1
aI11
aI9
aI3
aI12
aI0
aaa(lp1468
(lp1469
a(lp1470
a(lp1471
a(lp1472
a(lp1473
a(lp1474
a(lp1475
a(lp1476
a(lp1477
a(lp1478
a(lp1479
a(lp1480
a(lp1481
a(lp1482
a(lp1483
a(lp1484
a(lp1485
a(lp1486
a(lp1487
a(lp1488
a(lp1489
a(lp1490
a(lp1491
I7
aa(lp1492
I8
aa(lp1493
I6
aa(lp1494
I12
aI16
aI24
aa(lp1495
I11
aI22
aa(lp1496
I18
aI23
aa(lp1497
I10
aI26
aI3
aa(lp1498
I27
aI4
aa(lp1499
I13
aI20
aI15
aI9
aI29
aa(lp1500
I14
aI25
aI0
aI28
aI19
aI30
aa(lp1501
I5
aI17
aI21
aI31
aa(lp1502
I2
aI32
aI1
aaa(lp1503
(lp1504
a(lp1505
a(lp1506
a(lp1507
a(lp1508
a(lp1509
a(lp1510
a(lp1511
I5
aI4
aa(lp1512
I2
aI0
aI7
aI6
aI3
aI1
aaa(lp1513
(lp1514
a(lp1515
a(lp1516
a(lp1517
a(lp1518
I3
aa(lp1519
I2
aa(lp1520
I4
aI1
aI5
aI0
aaa(lp1521
(lp1522
a(lp1523
a(lp1524
a(lp1525
a(lp1526
I3
aa(lp1527
I1
aI4
aa(lp1528
I5
aI2
aI0
aaa(lp1529
(lp1530
a(lp1531
a(lp1532
a(lp1533
a(lp1534
a(lp1535
a(lp1536
a(lp1537
a(lp1538
a(lp1539
a(lp1540
a(lp1541
I7
aa(lp1542
I10
aI9
aI8
aI5
aa(lp1543
I3
aI12
aa(lp1544
I6
aI0
aI11
aI1
aI4
aI13
aI2
aaa(lp1545
(lp1546
a(lp1547
a(lp1548
a(lp1549
a(lp1550
a(lp1551
a(lp1552
a(lp1553
a(lp1554
a(lp1555
a(lp1556
a(lp1557
a(lp1558
a(lp1559
I2
aI12
aI4
aI8
aI5
aa(lp1560
I6
aa(lp1561
I13
aI0
aI11
aI7
aI9
aI3
aI10
aI14
aI1
aaa(lp1562
(lp1563
a(lp1564
a(lp1565
a(lp1566
a(lp1567
a(lp1568
a(lp1569
a(lp1570
a(lp1571
I5
aa(lp1572
I3
aI7
aa(lp1573
I9
aa(lp1574
I10
aa(lp1575
I6
aI1
aI2
aI11
aa(lp1576
I4
aI12
aI0
aa(lp1577
I13
aa(lp1578
I8
aI14
aaa(lp1579
(lp1580
a(lp1581
a(lp1582
a(lp1583
a(lp1584
a(lp1585
a(lp1586
I4
aa(lp1587
I5
aa(lp1588
I7
aI2
aa(lp1589
I8
aa(lp1590
I1
aI6
aI3
aI9
aI0
aaa(lp1591
(lp1592
a(lp1593
a(lp1594
a(lp1595
a(lp1596
a(lp1597
a(lp1598
a(lp1599
a(lp1600
a(lp1601
a(lp1602
a(lp1603
a(lp1604
a(lp1605
I2
aa(lp1606
I7
aI10
aa(lp1607
I4
aI11
aa(lp1608
I8
aI3
aI9
aI12
aa(lp1609
I14
aa(lp1610
I15
aI6
aa(lp1611
I13
aI16
aI5
aI17
aI0
aI18
aI1
aaa(lp1612
(lp1613
a(lp1614
a(lp1615
a(lp1616
a(lp1617
a(lp1618
I1
aI2
aI3
aI4
aI0
aaa(lp1619
(lp1620
a(lp1621
a(lp1622
a(lp1623
a(lp1624
a(lp1625
a(lp1626
a(lp1627
a(lp1628
a(lp1629
I6
aa(lp1630
I7
aa(lp1631
I5
aI8
aI10
aa(lp1632
I1
aI9
aa(lp1633
I2
aI12
aa(lp1634
I13
aI3
aI4
aI11
aI0
aaa(lp1635
(lp1636
a(lp1637
a(lp1638
a(lp1639
a(lp1640
a(lp1641
a(lp1642
a(lp1643
a(lp1644
a(lp1645
a(lp1646
a(lp1647
a(lp1648
a(lp1649
I7
aa(lp1650
I3
aI9
aI2
aa(lp1651
I6
aI13
aI11
aI4
aa(lp1652
I10
aI8
aI14
aa(lp1653
I16
aI0
aa(lp1654
I17
aa(lp1655
I18
aa(lp1656
I1
aI12
aI5
aI15
aI19
aaa(lp1657
(lp1658
a(lp1659
a(lp1660
a(lp1661
a(lp1662
a(lp1663
a(lp1664
a(lp1665
a(lp1666
a(lp1667
I6
aI3
aa(lp1668
I4
aI7
aI8
aI1
aI2
aI5
aI9
aI0
aaa(lp1669
(lp1670
a(lp1671
a(lp1672
a(lp1673
a(lp1674
a(lp1675
a(lp1676
a(lp1677
a(lp1678
a(lp1679
a(lp1680
a(lp1681
a(lp1682
I10
aa(lp1683
I5
aI2
aI4
aa(lp1684
I3
aI7
aa(lp1685
I8
aI9
aa(lp1686
I13
aI14
aI11
aI15
aa(lp1687
I1
aI6
aI12
aI16
aI0
aaa(lp1688
(lp1689
a(lp1690
a(lp1691
a(lp1692
a(lp1693
a(lp1694
a(lp1695
a(lp1696
a(lp1697
a(lp1698
a(lp1699
I9
aI7
aa(lp1700
I8
aa(lp1701
I6
aI4
aI10
aa(lp1702
I1
aI3
aI12
aa(lp1703
I13
aI2
aI5
aI11
aI0
aaa(lp1704
(lp1705
a(lp1706
a(lp1707
a(lp1708
I2
aa(lp1709
I1
aa(lp1710
I4
aI3
aI0
aaa(lp1711
(lp1712
a(lp1713
a(lp1714
a(lp1715
a(lp1716
a(lp1717
a(lp1718
a(lp1719
a(lp1720
a(lp1721
a(lp1722
a(lp1723
a(lp1724
I10
aI4
aa(lp1725
I1
aI5
aI7
aI9
aI11
aI0
aa(lp1726
I3
aI6
aI13
aI8
aI12
aI2
aaa(lp1727
(lp1728
a(lp1729
a(lp1730
a(lp1731
a(lp1732
a(lp1733
a(lp1734
a(lp1735
I6
aI4
aI3
aa(lp1736
I1
aI2
aI5
aI7
aI0
aaa(lp1737
(lp1738
a(lp1739
a(lp1740
a(lp1741
a(lp1742
a(lp1743
a(lp1744
a(lp1745
I3
aa(lp1746
I6
aa(lp1747
I1
aI5
aI4
aI8
aI2
aI7
aI0
aaa(lp1748
(lp1749
a(lp1750
a(lp1751
a(lp1752
a(lp1753
a(lp1754
a(lp1755
a(lp1756
a(lp1757
a(lp1758
a(lp1759
a(lp1760
a(lp1761
a(lp1762
a(lp1763
a(lp1764
a(lp1765
a(lp1766
a(lp1767
I13
aa(lp1768
I17
aa(lp1769
I15
aI14
aa(lp1770
I4
aa(lp1771
I19
aI12
aI21
aa(lp1772
I3
aI18
aa(lp1773
I5
aI20
aI0
aI9
aI16
aI11
aa(lp1774
I6
aI24
aa(lp1775
I23
aI10
aI7
aI25
aI1
aI8
aI22
aI2
aaa(lp1776
(lp1777
a(lp1778
a(lp1779
a(lp1780
a(lp1781
a(lp1782
a(lp1783
I4
aa(lp1784
I1
aI2
aI5
aI3
aI6
aI0
aaa(lp1785
(lp1786
a(lp1787
a(lp1788
a(lp1789
a(lp1790
a(lp1791
a(lp1792
I2
aI4
aa(lp1793
I1
aI5
aI3
aI6
aI0
aaa(lp1794
(lp1795
a(lp1796
a(lp1797
a(lp1798
a(lp1799
a(lp1800
I4
aI3
aa(lp1801
I1
aI2
aI5
aI0
aaa(lp1802
(lp1803
a(lp1804
a(lp1805
a(lp1806
a(lp1807
a(lp1808
a(lp1809
a(lp1810
a(lp1811
a(lp1812
a(lp1813
I1
aI6
aI2
aa(lp1814
I4
aI7
aa(lp1815
I11
aa(lp1816
I8
aI9
aI12
aa(lp1817
I10
aI3
aI5
aI13
aI0
aaa(lp1818
(lp1819
a(lp1820
a(lp1821
a(lp1822
a(lp1823
a(lp1824
a(lp1825
a(lp1826
a(lp1827
a(lp1828
I7
aa(lp1829
I8
aI3
aI9
aI4
aa(lp1830
I2
aI6
aI0
aI5
aI10
aI1
aaa(lp1831
(lp1832
a(lp1833
a(lp1834
a(lp1835
a(lp1836
a(lp1837
a(lp1838
a(lp1839
a(lp1840
a(lp1841
a(lp1842
a(lp1843
a(lp1844
a(lp1845
I10
aI3
aI8
aa(lp1846
I4
aI5
aa(lp1847
I12
aa(lp1848
I11
aI7
aI0
aI15
aa(lp1849
I14
aI6
aI9
aI13
aI1
aI16
aI2
aaa(lp1850
(lp1851
a(lp1852
a(lp1853
a(lp1854
a(lp1855
a(lp1856
a(lp1857
a(lp1858
a(lp1859
a(lp1860
a(lp1861
a(lp1862
a(lp1863
a(lp1864
a(lp1865
a(lp1866
a(lp1867
a(lp1868
a(lp1869
a(lp1870
a(lp1871
a(lp1872
a(lp1873
a(lp1874
a(lp1875
a(lp1876
I0
aa(lp1877
I13
aI19
aI17
aa(lp1878
I6
aI4
aI5
aa(lp1879
I8
aI18
aa(lp1880
I23
aI14
aI25
aI26
aa(lp1881
I12
aI22
aI20
aI10
aI15
aI28
aa(lp1882
I11
aI29
aa(lp1883
I27
aI2
aI21
aI24
aI16
aI9
aI7
aI31
aI1
aI30
aI3
aaa(lp1884
(lp1885
a(lp1886
a(lp1887
a(lp1888
a(lp1889
I1
aa(lp1890
I4
aI2
aI3
aI0
aaa(lp1891
(lp1892
a(lp1893
a(lp1894
a(lp1895
a(lp1896
a(lp1897
a(lp1898
I5
aa(lp1899
I4
aa(lp1900
I3
aI6
aI7
aa(lp1901
I1
aI2
aI8
aI0
aaa(lp1902
(lp1903
a(lp1904
a(lp1905
I1
aI0
aaa(lp1906
(lp1907
a(lp1908
a(lp1909
a(lp1910
a(lp1911
a(lp1912
a(lp1913
a(lp1914
a(lp1915
a(lp1916
a(lp1917
I2
aa(lp1918
I6
aa(lp1919
I5
aI1
aa(lp1920
I8
aa(lp1921
I7
aI12
aa(lp1922
I13
aI3
aI14
aa(lp1923
I10
aI9
aI11
aI4
aI15
aI0
aaa(lp1924
(lp1925
a(lp1926
a(lp1927
a(lp1928
a(lp1929
a(lp1930
a(lp1931
a(lp1932
a(lp1933
a(lp1934
a(lp1935
a(lp1936
a(lp1937
a(lp1938
I4
aI6
aa(lp1939
I8
aI1
aa(lp1940
I2
aa(lp1941
I11
aI10
aI14
aa(lp1942
I12
aI9
aI5
aI15
aI16
aa(lp1943
I7
aI17
aa(lp1944
I3
aI13
aI18
aI0
aaa(lp1945
(lp1946
a(lp1947
a(lp1948
a(lp1949
a(lp1950
a(lp1951
a(lp1952
a(lp1953
a(lp1954
a(lp1955
a(lp1956
a(lp1957
a(lp1958
a(lp1959
a(lp1960
a(lp1961
a(lp1962
a(lp1963
a(lp1964
a(lp1965
a(lp1966
a(lp1967
a(lp1968
a(lp1969
a(lp1970
I11
aI15
aa(lp1971
I19
aI16
aa(lp1972
I18
aa(lp1973
I21
aa(lp1974
I5
aI8
aI13
aI22
aa(lp1975
I17
aI9
aa(lp1976
I27
aa(lp1977
I23
aI29
aa(lp1978
I6
aI14
aI24
aa(lp1979
I12
aI25
aI31
aa(lp1980
I10
aI30
aI33
aa(lp1981
I4
aI26
aI2
aI32
aI0
aI7
aI34
aI1
aI20
aI28
aI3
aaa(lp1982
(lp1983
a(lp1984
a(lp1985
a(lp1986
a(lp1987
a(lp1988
a(lp1989
a(lp1990
a(lp1991
I3
aI5
aI2
aa(lp1992
I6
aI4
aa(lp1993
I1
aI7
aI9
aI8
aI0
aaa(lp1994
(lp1995
a(lp1996
a(lp1997
a(lp1998
a(lp1999
a(lp2000
I3
aI2
aa(lp2001
I4
aa(lp2002
I5
aI1
aI6
aI0
aaa(lp2003
(lp2004
a(lp2005
a(lp2006
a(lp2007
a(lp2008
a(lp2009
a(lp2010
a(lp2011
a(lp2012
a(lp2013
a(lp2014
a(lp2015
a(lp2016
a(lp2017
a(lp2018
a(lp2019
I14
aI11
aa(lp2020
I13
aa(lp2021
I7
aI8
aI12
aI10
aI3
aa(lp2022
I15
aa(lp2023
I9
aI16
aI17
aa(lp2024
I18
aI0
aI5
aI19
aa(lp2025
I2
aI6
aI4
aI20
aI1
aaa(lp2026
(lp2027
a(lp2028
a(lp2029
a(lp2030
a(lp2031
a(lp2032
a(lp2033
a(lp2034
a(lp2035
a(lp2036
a(lp2037
a(lp2038
a(lp2039
a(lp2040
a(lp2041
a(lp2042
I10
aI5
aa(lp2043
I13
aI6
aa(lp2044
I12
aI15
aa(lp2045
I3
aI14
aI0
aI9
aI16
aa(lp2046
I18
aI1
aI11
aI8
aI4
aI7
aI17
aI2
aaa(lp2047
(lp2048
a(lp2049
a(lp2050
a(lp2051
a(lp2052
a(lp2053
a(lp2054
a(lp2055
a(lp2056
a(lp2057
I8
aa(lp2058
I4
aa(lp2059
I5
aI7
aI6
aI10
aa(lp2060
I1
aI2
aI9
aI3
aI11
aI0
aaa(lp2061
(lp2062
a(lp2063
a(lp2064
a(lp2065
a(lp2066
a(lp2067
a(lp2068
a(lp2069
a(lp2070
I6
aa(lp2071
I7
aI2
aI4
aa(lp2072
I1
aI3
aI5
aI9
aI8
aI0
aaa(lp2073
(lp2074
a(lp2075
a(lp2076
a(lp2077
a(lp2078
a(lp2079
a(lp2080
a(lp2081
a(lp2082
a(lp2083
a(lp2084
a(lp2085
a(lp2086
I3
aa(lp2087
I8
aa(lp2088
I6
aa(lp2089
I9
aI12
aa(lp2090
I7
aI14
aI15
aa(lp2091
I10
aI16
aa(lp2092
I17
aa(lp2093
I13
aI5
aI11
aI4
aI18
aa(lp2094
I1
aI0
aI19
aI2
aaa(lp2095
(lp2096
a(lp2097
a(lp2098
a(lp2099
a(lp2100
a(lp2101
a(lp2102
a(lp2103
a(lp2104
a(lp2105
a(lp2106
a(lp2107
a(lp2108
a(lp2109
a(lp2110
a(lp2111
I13
aI7
aa(lp2112
I6
aa(lp2113
I16
aa(lp2114
I17
aa(lp2115
I14
aI8
aI11
aI10
aI18
aa(lp2116
I9
aI5
aI19
aa(lp2117
I3
aI4
aI1
aI12
aI15
aI2
aI20
aI0
aaa(lp2118
(lp2119
a(lp2120
a(lp2121
a(lp2122
a(lp2123
a(lp2124
I1
aI2
aI4
aI3
aI0
aaa(lp2125
(lp2126
a(lp2127
a(lp2128
a(lp2129
a(lp2130
a(lp2131
a(lp2132
a(lp2133
I3
aa(lp2134
I7
aa(lp2135
I6
aI8
aa(lp2136
I1
aI4
aI5
aI2
aI9
aI0
aaa(lp2137
(lp2138
a(lp2139
a(lp2140
a(lp2141
a(lp2142
I1
aI3
aI2
aI0
aaa(lp2143
(lp2144
a(lp2145
a(lp2146
a(lp2147
a(lp2148
a(lp2149
a(lp2150
a(lp2151
a(lp2152
a(lp2153
a(lp2154
I9
aa(lp2155
I8
aI7
aI2
aI5
aI10
aa(lp2156
I6
aI3
aI4
aI11
aa(lp2157
I12
aa(lp2158
I1
aI13
aI0
aaa(lp2159
(lp2160
a(lp2161
a(lp2162
a(lp2163
a(lp2164
a(lp2165
a(lp2166
a(lp2167
a(lp2168
a(lp2169
a(lp2170
a(lp2171
a(lp2172
a(lp2173
a(lp2174
a(lp2175
I7
aa(lp2176
I14
aI5
aI8
aa(lp2177
I2
aa(lp2178
I13
aI11
aI15
aa(lp2179
I1
aI16
aa(lp2180
I12
aI10
aI9
aI3
aI4
aI19
aa(lp2181
I17
aI18
aI6
aI20
aI0
aaa(lp2182
(lp2183
a(lp2184
a(lp2185
a(lp2186
a(lp2187
a(lp2188
a(lp2189
I5
aa(lp2190
I2
aI4
aI6
aa(lp2191
I3
aI1
aI7
aI0
aaa(lp2192
(lp2193
a(lp2194
a(lp2195
a(lp2196
a(lp2197
a(lp2198
a(lp2199
a(lp2200
a(lp2201
a(lp2202
a(lp2203
a(lp2204
a(lp2205
a(lp2206
a(lp2207
a(lp2208
a(lp2209
a(lp2210
a(lp2211
I8
aa(lp2212
I1
aa(lp2213
I12
aI15
aI10
aI5
aa(lp2214
I16
aa(lp2215
I7
aI17
aI3
aI11
aI19
aa(lp2216
I13
aI6
aI18
aa(lp2217
I20
aI9
aI14
aI4
aI23
aI22
aa(lp2218
I21
aI24
aa(lp2219
I2
aI25
aI0
aaa(lp2220
(lp2221
a(lp2222
a(lp2223
a(lp2224
a(lp2225
a(lp2226
a(lp2227
a(lp2228
a(lp2229
a(lp2230
a(lp2231
I8
aa(lp2232
I1
aI9
aI7
aI10
aa(lp2233
I2
aI6
aI3
aI5
aI4
aI11
aI0
aaa(lp2234
(lp2235
a(lp2236
a(lp2237
a(lp2238
a(lp2239
a(lp2240
I2
aI4
aa(lp2241
I1
aI3
aI5
aI0
aaa(lp2242
(lp2243
a(lp2244
a(lp2245
a(lp2246
a(lp2247
a(lp2248
a(lp2249
I1
aI4
aa(lp2250
I5
aI3
aI6
aa(lp2251
I2
aI7
aI0
aaa(lp2252
(lp2253
a(lp2254
a(lp2255
a(lp2256
a(lp2257
a(lp2258
a(lp2259
a(lp2260
a(lp2261
a(lp2262
a(lp2263
I7
aI5
aa(lp2264
I9
aI6
aI10
aa(lp2265
I8
aI11
aa(lp2266
I2
aI3
aI0
aI4
aI12
aI1
aaa(lp2267
(lp2268
a(lp2269
a(lp2270
a(lp2271
a(lp2272
a(lp2273
a(lp2274
a(lp2275
I2
aI4
aa(lp2276
I7
aI5
aI6
aI3
aI1
aI0
aaa(lp2277
(lp2278
a(lp2279
a(lp2280
a(lp2281
a(lp2282
a(lp2283
a(lp2284
a(lp2285
a(lp2286
I3
aI6
aI5
aI7
aa(lp2287
I4
aI1
aa(lp2288
I2
aI9
aI8
aI0
aaa(lp2289
(lp2290
a(lp2291
a(lp2292
a(lp2293
a(lp2294
a(lp2295
a(lp2296
a(lp2297
I5
aa(lp2298
I6
aI1
aa(lp2299
I4
aa(lp2300
I2
aI9
aa(lp2301
I3
aI7
aa(lp2302
I10
aI8
aI11
aI0
aaa(lp2303
(lp2304
a(lp2305
a(lp2306
a(lp2307
a(lp2308
a(lp2309
a(lp2310
a(lp2311
a(lp2312
a(lp2313
I3
aa(lp2314
I5
aa(lp2315
I8
aa(lp2316
I7
aI6
aI9
aa(lp2317
I1
aI4
aI11
aI2
aI10
aI12
aI0
aaa(lp2318
(lp2319
a(lp2320
a(lp2321
a(lp2322
a(lp2323
a(lp2324
a(lp2325
a(lp2326
a(lp2327
I7
aa(lp2328
I1
aa(lp2329
I5
aI8
aa(lp2330
I6
aI10
aa(lp2331
I9
aI4
aI2
aI3
aI11
aI0
aaa(lp2332
(lp2333
a(lp2334
a(lp2335
a(lp2336
a(lp2337
a(lp2338
I2
aI3
aI0
aI4
aI1
aaa(lp2339
(lp2340
a(lp2341
a(lp2342
a(lp2343
a(lp2344
a(lp2345
I4
aI2
aa(lp2346
I1
aI3
aI5
aI0
aaa(lp2347
(lp2348
a(lp2349
a(lp2350
a(lp2351
a(lp2352
I1
aa(lp2353
I2
aa(lp2354
I4
aI3
aI5
aI0
aaa(lp2355
(lp2356
a(lp2357
a(lp2358
a(lp2359
a(lp2360
a(lp2361
a(lp2362
a(lp2363
a(lp2364
I7
aI2
aI4
aa(lp2365
I1
aI5
aI6
aI3
aI8
aI0
aaa(lp2366
(lp2367
a(lp2368
a(lp2369
a(lp2370
a(lp2371
a(lp2372
a(lp2373
a(lp2374
a(lp2375
I5
aa(lp2376
I6
aI0
aa(lp2377
I8
aI4
aI2
aa(lp2378
I3
aI7
aI10
aI1
aaa(lp2379
(lp2380
a(lp2381
a(lp2382
a(lp2383
a(lp2384
a(lp2385
a(lp2386
a(lp2387
a(lp2388
a(lp2389
a(lp2390
a(lp2391
a(lp2392
a(lp2393
a(lp2394
a(lp2395
a(lp2396
a(lp2397
a(lp2398
a(lp2399
a(lp2400
a(lp2401
a(lp2402
I2
aI6
aI12
aI21
aa(lp2403
I5
aI10
aa(lp2404
I20
aa(lp2405
I19
aI8
aI24
aa(lp2406
I17
aI3
aI9
aI11
aI23
aa(lp2407
I4
aI13
aI26
aa(lp2408
I16
aI1
aI25
aa(lp2409
I28
aa(lp2410
I15
aI14
aI18
aI29
aI7
aI22
aa(lp2411
I27
aI30
aI0
aaa(lp2412
(lp2413
a(lp2414
a(lp2415
a(lp2416
a(lp2417
a(lp2418
a(lp2419
a(lp2420
I4
aa(lp2421
I3
aa(lp2422
I6
aI5
aa(lp2423
I7
aI0
aI8
aI2
aI9
aI1
aaa(lp2424
(lp2425
a(lp2426
a(lp2427
a(lp2428
a(lp2429
a(lp2430
a(lp2431
a(lp2432
a(lp2433
a(lp2434
a(lp2435
a(lp2436
I5
aa(lp2437
I8
aI10
aa(lp2438
I12
aI7
aa(lp2439
I2
aI6
aI9
aI4
aI3
aI11
aI0
aI13
aI1
aaa(lp2440
(lp2441
a(lp2442
a(lp2443
a(lp2444
a(lp2445
a(lp2446
a(lp2447
a(lp2448
a(lp2449
a(lp2450
a(lp2451
a(lp2452
a(lp2453
a(lp2454
a(lp2455
a(lp2456
a(lp2457
a(lp2458
a(lp2459
I3
aa(lp2460
I16
aI4
aa(lp2461
I8
aa(lp2462
I14
aI0
aa(lp2463
I17
aI21
aa(lp2464
I12
aI22
aa(lp2465
I13
aI7
aI5
aI23
aa(lp2466
I20
aI15
aI11
aI6
aI1
aI19
aI24
aa(lp2467
I18
aI10
aI9
aI25
aI2
aaa(lp2468
(lp2469
a(lp2470
a(lp2471
a(lp2472
a(lp2473
a(lp2474
I2
aI4
aI1
aI3
aa(lp2475
I5
aI0
aaa(lp2476
(lp2477
a(lp2478
a(lp2479
a(lp2480
a(lp2481
a(lp2482
a(lp2483
a(lp2484
a(lp2485
I6
aI5
aI3
aa(lp2486
I4
aI2
aI7
aI8
aa(lp2487
I1
aI9
aI0
aaa(lp2488
(lp2489
a(lp2490
a(lp2491
a(lp2492
a(lp2493
a(lp2494
a(lp2495
a(lp2496
a(lp2497
a(lp2498
a(lp2499
I7
aI0
aI4
aI6
aa(lp2500
I5
aI8
aa(lp2501
I3
aI9
aI1
aI11
aI10
aI2
aaa(lp2502
(lp2503
a(lp2504
a(lp2505
a(lp2506
a(lp2507
a(lp2508
a(lp2509
a(lp2510
a(lp2511
a(lp2512
I7
aI8
aa(lp2513
I5
aI4
aI0
aI9
aa(lp2514
I2
aI6
aI3
aI10
aI1
aaa(lp2515
(lp2516
a(lp2517
a(lp2518
a(lp2519
a(lp2520
a(lp2521
a(lp2522
a(lp2523
I3
aI1
aI5
aa(lp2524
I7
aa(lp2525
I4
aI8
aa(lp2526
I9
aa(lp2527
I10
aa(lp2528
I11
aa(lp2529
I2
aI6
aI12
aI0
aaa(lp2530
(lp2531
a(lp2532
a(lp2533
a(lp2534
a(lp2535
a(lp2536
a(lp2537
a(lp2538
a(lp2539
a(lp2540
a(lp2541
a(lp2542
a(lp2543
I11
aI8
aa(lp2544
I4
aa(lp2545
I6
aI7
aI12
aI3
aa(lp2546
I2
aI10
aI13
aa(lp2547
I15
aI5
aI9
aI1
aI14
aI0
aaa(lp2548
(lp2549
a(lp2550
a(lp2551
a(lp2552
a(lp2553
a(lp2554
I2
aI3
aa(lp2555
I1
aI4
aI5
aI0
aaa(lp2556
(lp2557
a(lp2558
a(lp2559
a(lp2560
a(lp2561
I2
aI3
aa(lp2562
I1
aI4
aI0
aaa(lp2563
(lp2564
a(lp2565
a(lp2566
a(lp2567
a(lp2568
a(lp2569
a(lp2570
a(lp2571
a(lp2572
a(lp2573
a(lp2574
a(lp2575
a(lp2576
a(lp2577
I8
aa(lp2578
I12
aI10
aa(lp2579
I7
aI5
aa(lp2580
I13
aa(lp2581
I11
aI15
aa(lp2582
I16
aI2
aI4
aI0
aI9
aI14
aI1
aI6
aI17
aI3
aaa(lp2583
(lp2584
a(lp2585
a(lp2586
a(lp2587
a(lp2588
a(lp2589
a(lp2590
a(lp2591
a(lp2592
I7
aa(lp2593
I6
aa(lp2594
I2
aI4
aa(lp2595
I10
aI3
aI5
aI9
aI0
aI8
aI1
aaa(lp2596
(lp2597
a(lp2598
a(lp2599
a(lp2600
a(lp2601
a(lp2602
I4
aI2
aa(lp2603
I1
aI3
aI5
aI0
aaa(lp2604
(lp2605
a(lp2606
a(lp2607
a(lp2608
a(lp2609
a(lp2610
a(lp2611
a(lp2612
a(lp2613
a(lp2614
a(lp2615
a(lp2616
I2
aa(lp2617
I4
aI6
aa(lp2618
I1
aI7
aI12
aa(lp2619
I11
aa(lp2620
I14
aa(lp2621
I10
aI5
aI13
aa(lp2622
I9
aI16
aa(lp2623
I15
aI3
aI8
aI17
aI0
aaa(lp2624
(lp2625
a(lp2626
a(lp2627
a(lp2628
a(lp2629
a(lp2630
a(lp2631
a(lp2632
a(lp2633
I5
aI4
aI7
aa(lp2634
I2
aI1
aI3
aI6
aI8
aI0
aaa(lp2635
(lp2636
a(lp2637
a(lp2638
a(lp2639
a(lp2640
a(lp2641
a(lp2642
a(lp2643
a(lp2644
a(lp2645
a(lp2646
a(lp2647
a(lp2648
a(lp2649
a(lp2650
a(lp2651
a(lp2652
a(lp2653
a(lp2654
a(lp2655
a(lp2656
a(lp2657
a(lp2658
a(lp2659
a(lp2660
I16
aa(lp2661
I20
aI14
aa(lp2662
I2
aI10
aI17
aa(lp2663
I7
aI9
aa(lp2664
I24
aa(lp2665
I28
aI27
aa(lp2666
I18
aI23
aI22
aI3
aI4
aI29
aa(lp2667
I21
aI19
aI8
aI30
aa(lp2668
I12
aI31
aa(lp2669
I5
aI13
aI15
aI26
aI6
aI32
aa(lp2670
I25
aI11
aI33
aa(lp2671
I1
aI34
aI0
aaa(lp2672
(lp2673
a(lp2674
a(lp2675
a(lp2676
a(lp2677
a(lp2678
a(lp2679
a(lp2680
a(lp2681
a(lp2682
I8
aI3
aa(lp2683
I2
aI5
aI9
aa(lp2684
I10
aa(lp2685
I4
aI11
aa(lp2686
I6
aI7
aI12
aa(lp2687
I1
aI13
aI0
aaa(lp2688
(lp2689
a(lp2690
a(lp2691
a(lp2692
a(lp2693
a(lp2694
a(lp2695
a(lp2696
a(lp2697
a(lp2698
a(lp2699
I2
aI5
aI3
aI1
aI4
aI7
aI9
aI6
aa(lp2700
I8
aI10
aI0
aaa(lp2701
(lp2702
a(lp2703
a(lp2704
a(lp2705
a(lp2706
a(lp2707
a(lp2708
a(lp2709
a(lp2710
I5
aI7
aI4
aa(lp2711
I2
aI6
aI0
aI3
aI8
aI1
aaa(lp2712
(lp2713
a(lp2714
a(lp2715
a(lp2716
a(lp2717
a(lp2718
I3
aa(lp2719
I2
aI1
aI4
aI5
aa(lp2720
I6
aI0
aaa(lp2721
(lp2722
a(lp2723
a(lp2724
a(lp2725
a(lp2726
a(lp2727
a(lp2728
a(lp2729
a(lp2730
I4
aI5
aa(lp2731
I7
aI8
aa(lp2732
I2
aI0
aI3
aI6
aI9
aI1
aaa(lp2733
(lp2734
a(lp2735
a(lp2736
a(lp2737
a(lp2738
a(lp2739
a(lp2740
a(lp2741
a(lp2742
a(lp2743
a(lp2744
a(lp2745
a(lp2746
a(lp2747
I8
aa(lp2748
I9
aa(lp2749
I3
aI12
aI6
aa(lp2750
I2
aI15
aa(lp2751
I5
aI10
aI16
aa(lp2752
I4
aI13
aI17
aa(lp2753
I14
aI11
aI7
aI1
aI18
aI0
aaa(lp2754
(lp2755
a(lp2756
a(lp2757
a(lp2758
a(lp2759
a(lp2760
a(lp2761
a(lp2762
I5
aI2
aa(lp2763
I3
aa(lp2764
I6
aI4
aI7
aI8
aa(lp2765
I1
aI9
aI0
aaa(lp2766
(lp2767
a(lp2768
a(lp2769
a(lp2770
a(lp2771
a(lp2772
a(lp2773
a(lp2774
a(lp2775
I7
aI3
aa(lp2776
I5
aI0
aI6
aI2
aI4
aI8
aI1
aaa(lp2777
(lp2778
a(lp2779
a(lp2780
a(lp2781
I1
aI2
aI0
aaa(lp2782
(lp2783
a(lp2784
a(lp2785
a(lp2786
a(lp2787
a(lp2788
a(lp2789
a(lp2790
a(lp2791
a(lp2792
a(lp2793
a(lp2794
I6
aa(lp2795
I2
aI8
aa(lp2796
I5
aa(lp2797
I9
aI4
aI7
aI11
aI3
aI13
aa(lp2798
I12
aI1
aI10
aI14
aI0
aaa(lp2799
(lp2800
a(lp2801
a(lp2802
a(lp2803
a(lp2804
a(lp2805
a(lp2806
a(lp2807
a(lp2808
a(lp2809
a(lp2810
a(lp2811
I4
aI1
aa(lp2812
I8
aI3
aI7
aI5
aa(lp2813
I11
aI10
aI9
aI6
aI2
aI12
aI0
aaa(lp2814
(lp2815
a(lp2816
a(lp2817
a(lp2818
a(lp2819
a(lp2820
a(lp2821
a(lp2822
a(lp2823
a(lp2824
I1
aa(lp2825
I7
aI3
aa(lp2826
I5
aI4
aI2
aI8
aI10
aa(lp2827
I9
aI6
aI11
aI0
aaa(lp2828
(lp2829
a(lp2830
a(lp2831
a(lp2832
a(lp2833
a(lp2834
a(lp2835
a(lp2836
a(lp2837
a(lp2838
I7
aI8
aI6
aa(lp2839
I1
aI4
aI3
aI2
aI5
aI9
aI0
aaa(lp2840
(lp2841
a(lp2842
a(lp2843
a(lp2844
a(lp2845
a(lp2846
a(lp2847
a(lp2848
a(lp2849
a(lp2850
a(lp2851
a(lp2852
a(lp2853
a(lp2854
a(lp2855
a(lp2856
a(lp2857
I2
aI13
aI9
aa(lp2858
I12
aI11
aa(lp2859
I15
aI10
aa(lp2860
I17
aa(lp2861
I7
aI6
aI14
aI18
aa(lp2862
I1
aI3
aI8
aI16
aI5
aI19
aI4
aI20
aI0
aaaa(lp2863
(lp2864
(lp2865
a(lp2866
a(lp2867
a(lp2868
a(lp2869
Vdet
p2870
aVcompound
p2871
aa(lp2872
Vnsubj
p2873
aVdobj
p2874
aVpunct
p2875
aaa(lp2876
(lp2877
a(lp2878
a(lp2879
a(lp2880
a(lp2881
a(lp2882
a(lp2883
a(lp2884
a(lp2885
a(lp2886
a(lp2887
a(lp2888
a(lp2889
a(lp2890
a(lp2891
a(lp2892
a(lp2893
Vcase
p2894
aa(lp2895
Vcase
p2896
aa(lp2897
Vcase
p2898
aVdet
p2899
aa(lp2900
Vnmod
p2901
aa(lp2902
Vmark
p2903
aVdobj
p2904
aVnsubj
p2905
aVaux
p2906
aVaux
p2907
aVnmod
p2908
aa(lp2909
Vcase
p2910
aVdet
p2911
aVamod
p2912
aVnmod
p2913
aa(lp2914
Vnmod
p2915
aVpunct
p2916
aVnsubj
p2917
aVaux
p2918
aVcop
p2919
aVadvcl
p2920
aVpunct
p2921
aaa(lp2922
(lp2923
a(lp2924
a(lp2925
a(lp2926
a(lp2927
a(lp2928
a(lp2929
a(lp2930
a(lp2931
Vcase
p2932
aVdet
p2933
aa(lp2934
Vadvmod
p2935
aa(lp2936
Vcase
p2937
aa(lp2938
Vnmod
p2939
aa(lp2940
Vnmod
p2941
aa(lp2942
Vamod
p2943
aVamod
p2944
aa(lp2945
Vadvmod
p2946
aa(lp2947
Vnsubj
p2948
aVadvmod
p2949
aVxcomp
p2950
aa(lp2951
Vnsubj
p2952
aVcop
p2953
aVccomp
p2954
aa(lp2955
Vccomp
p2956
aVpunct
p2957
aaa(lp2958
(lp2959
a(lp2960
a(lp2961
a(lp2962
a(lp2963
a(lp2964
Vcase
p2965
aVnmod:poss
p2966
aa(lp2967
Vadvmod
p2968
aVdobj
p2969
aVnmod
p2970
aVpunct
p2971
aaa(lp2972
(lp2973
a(lp2974
a(lp2975
a(lp2976
a(lp2977
a(lp2978
a(lp2979
a(lp2980
a(lp2981
a(lp2982
Vmwe
p2983
aa(lp2984
Vcase
p2985
aa(lp2986
Vadvmod
p2987
aVcompound
p2988
aa(lp2989
Vnummod
p2990
aa(lp2991
Vdobj
p2992
aVnmod
p2993
aa(lp2994
Vnsubj
p2995
aVcop
p2996
aVadvmod
p2997
aVdet
p2998
aVamod
p2999
aVacl
p3000
aVpunct
p3001
aaa(lp3002
(lp3003
a(lp3004
a(lp3005
a(lp3006
a(lp3007
a(lp3008
a(lp3009
a(lp3010
a(lp3011
a(lp3012
Vcase
p3013
aa(lp3014
Vcase
p3015
aa(lp3016
Vdet
p3017
aa(lp3018
Vcop
p3019
aVadvmod
p3020
aVcase
p3021
aVnmod
p3022
aa(lp3023
Vnsubj
p3024
aVdobj
p3025
aVnmod
p3026
aVcc
p3027
aVconj
p3028
aVpunct
p3029
aaa(lp3030
(lp3031
a(lp3032
a(lp3033
a(lp3034
a(lp3035
a(lp3036
a(lp3037
a(lp3038
a(lp3039
a(lp3040
a(lp3041
a(lp3042
a(lp3043
a(lp3044
a(lp3045
a(lp3046
a(lp3047
a(lp3048
a(lp3049
a(lp3050
a(lp3051
a(lp3052
a(lp3053
Vcase
p3054
aa(lp3055
Vcase
p3056
aa(lp3057
Vneg
p3058
aa(lp3059
Vmark
p3060
aVexpl
p3061
aVnsubj
p3062
aa(lp3063
Vamod
p3064
aVnmod
p3065
aa(lp3066
Vdet
p3067
aVnmod
p3068
aa(lp3069
Vcc
p3070
aVconj
p3071
aVcc
p3072
aa(lp3073
Vnsubj
p3074
aVaux
p3075
aa(lp3076
Vnsubj
p3077
aVcop
p3078
aVdet
p3079
aVamod
p3080
aVacl:relcl
p3081
aa(lp3082
Vmark
p3083
aVadvcl
p3084
aVpunct
p3085
aVnsubjpass
p3086
aVauxpass
p3087
aVccomp
p3088
aa(lp3089
Vadvmod
p3090
aVnsubj
p3091
aVaux
p3092
aVccomp
p3093
aa(lp3094
Vnsubj
p3095
aVccomp
p3096
aVpunct
p3097
aaa(lp3098
(lp3099
a(lp3100
a(lp3101
a(lp3102
a(lp3103
a(lp3104
a(lp3105
a(lp3106
Vdet
p3107
aVamod
p3108
aa(lp3109
Vadvmod
p3110
aVpunct
p3111
aVnsubj
p3112
aVcop
p3113
aVdet
p3114
aVpunct
p3115
aaa(lp3116
(lp3117
a(lp3118
a(lp3119
a(lp3120
a(lp3121
Vadvmod
p3122
aa(lp3123
Vxcomp
p3124
aa(lp3125
Vadvmod
p3126
aVcc
p3127
aVconj
p3128
aVpunct
p3129
aaa(lp3130
(lp3131
a(lp3132
a(lp3133
a(lp3134
a(lp3135
Vdet
p3136
aa(lp3137
Vcc
p3138
aVconj
p3139
aa(lp3140
Vnsubj
p3141
aVcop
p3142
aVpunct
p3143
aaa(lp3144
(lp3145
a(lp3146
a(lp3147
a(lp3148
a(lp3149
a(lp3150
a(lp3151
a(lp3152
a(lp3153
a(lp3154
a(lp3155
a(lp3156
Vdobj
p3157
aa(lp3158
Vnsubj
p3159
aVaux
p3160
aVneg
p3161
aVdobj
p3162
aa(lp3163
Vnsubj
p3164
aVccomp
p3165
aa(lp3166
Vdobj
p3167
aVpunct
p3168
aVconj
p3169
aVpunct
p3170
aVcc
p3171
aVconj
p3172
aVpunct
p3173
aaa(lp3174
(lp3175
a(lp3176
a(lp3177
a(lp3178
a(lp3179
a(lp3180
a(lp3181
a(lp3182
a(lp3183
a(lp3184
a(lp3185
a(lp3186
a(lp3187
a(lp3188
Vmark
p3189
aVnsubj
p3190
aVaux
p3191
aVneg
p3192
aVdobj
p3193
aa(lp3194
Vcase
p3195
aa(lp3196
Vadvcl
p3197
aVpunct
p3198
aVnsubj
p3199
aVaux
p3200
aVneg
p3201
aVcop
p3202
aVdet
p3203
aVnmod
p3204
aVpunct
p3205
aaa(lp3206
(lp3207
a(lp3208
a(lp3209
a(lp3210
a(lp3211
a(lp3212
a(lp3213
a(lp3214
a(lp3215
Vcompound
p3216
aa(lp3217
Vcase
p3218
aVcase
p3219
aa(lp3220
Vnmod
p3221
aa(lp3222
Vadvmod
p3223
aa(lp3224
Vdet
p3225
aVcc
p3226
aVconj
p3227
aVdep
p3228
aa(lp3229
Vamod
p3230
aVdep
p3231
aVpunct
p3232
aa(lp3233
Vroot
p3234
aa(lp3235
Vdobj
p3236
aVpunct
p3237
aaa(lp3238
(lp3239
a(lp3240
a(lp3241
a(lp3242
a(lp3243
a(lp3244
a(lp3245
Vcompound
p3246
aa(lp3247
Vadvmod
p3248
aa(lp3249
Vdep
p3250
aVnsubj
p3251
aa(lp3252
Vccomp
p3253
aa(lp3254
Vnsubj
p3255
aVdobj
p3256
aVcc
p3257
aVconj
p3258
aVpunct
p3259
aaa(lp3260
(lp3261
a(lp3262
a(lp3263
a(lp3264
a(lp3265
a(lp3266
a(lp3267
a(lp3268
a(lp3269
a(lp3270
a(lp3271
a(lp3272
a(lp3273
a(lp3274
Vdet
p3275
aa(lp3276
Vcase
p3277
aVdet
p3278
aa(lp3279
Vdet:predet
p3280
aVdet
p3281
aa(lp3282
Vcase
p3283
aVdet
p3284
aVamod
p3285
aVcompound
p3286
aa(lp3287
Vnmod
p3288
aa(lp3289
Vnsubj
p3290
aVxcomp
p3291
aa(lp3292
Vnsubj
p3293
aVnmod
p3294
aVcc
p3295
aVconj
p3296
aVpunct
p3297
aVconj
p3298
aVpunct
p3299
aaa(lp3300
(lp3301
a(lp3302
a(lp3303
a(lp3304
a(lp3305
a(lp3306
Vnsubj
p3307
aVcop
p3308
aVnmod:poss
p3309
aVamod
p3310
aVpunct
p3311
aaa(lp3312
(lp3313
a(lp3314
a(lp3315
a(lp3316
a(lp3317
a(lp3318
a(lp3319
a(lp3320
a(lp3321
a(lp3322
Vcase
p3323
aa(lp3324
Vcase
p3325
aa(lp3326
Vcase
p3327
aVdet
p3328
aVnmod
p3329
aa(lp3330
Vnsubj
p3331
aVnmod
p3332
aa(lp3333
Vdet
p3334
aVacl:relcl
p3335
aa(lp3336
Vnsubj
p3337
aVadvmod
p3338
aVcc
p3339
aVconj
p3340
aVpunct
p3341
aaa(lp3342
(lp3343
a(lp3344
a(lp3345
a(lp3346
a(lp3347
a(lp3348
a(lp3349
a(lp3350
a(lp3351
a(lp3352
a(lp3353
a(lp3354
a(lp3355
a(lp3356
Vmwe
p3357
aa(lp3358
Vnsubj
p3359
aVadvmod
p3360
aVadvmod
p3361
aa(lp3362
Vadvmod
p3363
aVcase
p3364
aVdet
p3365
aVcompound
p3366
aa(lp3367
Vdet
p3368
aVamod
p3369
aVacl:relcl
p3370
aa(lp3371
Vdobj
p3372
aVpunct
p3373
aa(lp3374
Vroot
p3375
aa(lp3376
Vroot
p3377
aa(lp3378
Vnsubj
p3379
aVaux
p3380
aVdobj
p3381
aVnmod
p3382
aVadvmod
p3383
aaa(lp3384
(lp3385
a(lp3386
a(lp3387
a(lp3388
a(lp3389
a(lp3390
a(lp3391
a(lp3392
a(lp3393
a(lp3394
Vamod
p3395
aVcompound
p3396
aa(lp3397
Vnsubj
p3398
aVcop
p3399
aVnmod:poss
p3400
aVamod
p3401
aVcompound
p3402
aVcc
p3403
aVconj
p3404
aVpunct
p3405
aaa(lp3406
(lp3407
a(lp3408
a(lp3409
a(lp3410
a(lp3411
a(lp3412
a(lp3413
a(lp3414
a(lp3415
a(lp3416
a(lp3417
a(lp3418
a(lp3419
Vdet
p3420
aa(lp3421
Vcase
p3422
aVdet
p3423
aVamod
p3424
aa(lp3425
Vcc
p3426
aVconj
p3427
aa(lp3428
Vnsubj
p3429
aVadvmod
p3430
aa(lp3431
Vnmod
p3432
aVadvmod
p3433
aVaux
p3434
aVccomp
p3435
aa(lp3436
Vnsubj
p3437
aVaux
p3438
aVdobj
p3439
aVparataxis
p3440
aVpunct
p3441
aaa(lp3442
(lp3443
a(lp3444
a(lp3445
a(lp3446
a(lp3447
a(lp3448
a(lp3449
a(lp3450
a(lp3451
a(lp3452
a(lp3453
Vcase
p3454
aVdet
p3455
aa(lp3456
Vadvmod
p3457
aa(lp3458
Vcase
p3459
aVnmod:poss
p3460
aVnmod
p3461
aa(lp3462
Vdet
p3463
aVcompound
p3464
aVnmod
p3465
aa(lp3466
Vnsubj
p3467
aVaux
p3468
aVneg
p3469
aVadvmod
p3470
aVpunct
p3471
aaa(lp3472
(lp3473
a(lp3474
a(lp3475
a(lp3476
Vamod
p3477
aa(lp3478
Vdet
p3479
aa(lp3480
Vnsubj
p3481
aVdobj
p3482
aVpunct
p3483
aaa(lp3484
(lp3485
a(lp3486
a(lp3487
a(lp3488
a(lp3489
a(lp3490
a(lp3491
a(lp3492
a(lp3493
a(lp3494
a(lp3495
a(lp3496
a(lp3497
Vcc
p3498
aVconj
p3499
aa(lp3500
Vpunct
p3501
aVnsubj
p3502
aVcop
p3503
aVneg
p3504
aVdet
p3505
aVpunct
p3506
aa(lp3507
Vnsubj
p3508
aVcop
p3509
aVdep
p3510
aVcc
p3511
aVconj
p3512
aVpunct
p3513
aaa(lp3514
(lp3515
a(lp3516
a(lp3517
a(lp3518
a(lp3519
a(lp3520
a(lp3521
a(lp3522
Vcase
p3523
aVnmod:poss
p3524
aVamod
p3525
aa(lp3526
Vnsubjpass
p3527
aVauxpass
p3528
aVadvmod
p3529
aVnmod
p3530
aVpunct
p3531
aaa(lp3532
(lp3533
a(lp3534
a(lp3535
a(lp3536
a(lp3537
a(lp3538
a(lp3539
a(lp3540
Vcompound:prt
p3541
aa(lp3542
Vnmod:poss
p3543
aa(lp3544
Vnsubj
p3545
aVaux
p3546
aVadvmod
p3547
aVdobj
p3548
aVcc
p3549
aVconj
p3550
aVpunct
p3551
aaa(lp3552
(lp3553
a(lp3554
a(lp3555
a(lp3556
a(lp3557
a(lp3558
a(lp3559
a(lp3560
a(lp3561
a(lp3562
a(lp3563
a(lp3564
a(lp3565
a(lp3566
a(lp3567
a(lp3568
a(lp3569
a(lp3570
a(lp3571
Vcase
p3572
aa(lp3573
Vdet
p3574
aa(lp3575
Vdet
p3576
aVcompound
p3577
aa(lp3578
Vdet
p3579
aa(lp3580
Vnsubj
p3581
aVadvmod
p3582
aVdobj
p3583
aa(lp3584
Vnmod:poss
p3585
aVnmod
p3586
aa(lp3587
Vmark
p3588
aVnsubj
p3589
aVpunct
p3590
aVcase
p3591
aVnmod:poss
p3592
aVamod
p3593
aa(lp3594
Vadvmod
p3595
aVadvcl
p3596
aa(lp3597
Vnsubj
p3598
aVaux
p3599
aVaux
p3600
aVadvmod
p3601
aVpunct
p3602
aVcc
p3603
aVconj
p3604
aVpunct
p3605
aaa(lp3606
(lp3607
a(lp3608
a(lp3609
a(lp3610
a(lp3611
a(lp3612
a(lp3613
Vneg
p3614
aa(lp3615
Vnsubj
p3616
aVcc
p3617
aVconj
p3618
aVcc
p3619
aVconj
p3620
aVpunct
p3621
aaa(lp3622
(lp3623
a(lp3624
a(lp3625
a(lp3626
a(lp3627
a(lp3628
a(lp3629
Vcc
p3630
aVconj
p3631
aa(lp3632
Vnsubj
p3633
aVaux
p3634
aVadvmod
p3635
aVadvmod
p3636
aVpunct
p3637
aaa(lp3638
(lp3639
a(lp3640
a(lp3641
a(lp3642
a(lp3643
a(lp3644
Vdet
p3645
aVcompound
p3646
aa(lp3647
Vnsubj
p3648
aVadvmod
p3649
aVdobj
p3650
aVpunct
p3651
aaa(lp3652
(lp3653
a(lp3654
a(lp3655
a(lp3656
a(lp3657
a(lp3658
a(lp3659
a(lp3660
a(lp3661
a(lp3662
a(lp3663
Vdet
p3664
aVamod
p3665
aVamod
p3666
aa(lp3667
Vcase
p3668
aVdet
p3669
aa(lp3670
Vnmod
p3671
aa(lp3672
Vadvmod
p3673
aVnsubj
p3674
aVdobj
p3675
aa(lp3676
Vnsubj
p3677
aVcop
p3678
aVadvmod
p3679
aVadvcl
p3680
aVpunct
p3681
aaa(lp3682
(lp3683
a(lp3684
a(lp3685
a(lp3686
a(lp3687
a(lp3688
a(lp3689
a(lp3690
a(lp3691
a(lp3692
Vdet
p3693
aa(lp3694
Vnsubj
p3695
aVaux
p3696
aVdobj
p3697
aVadvmod
p3698
aa(lp3699
Vnsubj
p3700
aVamod
p3701
aVpunct
p3702
aVdep
p3703
aVparataxis
p3704
aVpunct
p3705
aaa(lp3706
(lp3707
a(lp3708
a(lp3709
a(lp3710
a(lp3711
a(lp3712
a(lp3713
a(lp3714
a(lp3715
a(lp3716
a(lp3717
a(lp3718
a(lp3719
a(lp3720
Vmark
p3721
aVnsubj
p3722
aVdobj
p3723
aa(lp3724
Vdet
p3725
aVcompound
p3726
aa(lp3727
Vcase
p3728
aa(lp3729
Vadvmod
p3730
aVnsubjpass
p3731
aVauxpass
p3732
aVnmod
p3733
aa(lp3734
Vnsubjpass
p3735
aVaux
p3736
aVneg
p3737
aVadvcl
p3738
aVpunct
p3739
aVdep
p3740
aVpunct
p3741
aaa(lp3742
(lp3743
a(lp3744
a(lp3745
a(lp3746
a(lp3747
a(lp3748
a(lp3749
a(lp3750
a(lp3751
a(lp3752
a(lp3753
a(lp3754
a(lp3755
a(lp3756
a(lp3757
a(lp3758
a(lp3759
a(lp3760
a(lp3761
a(lp3762
a(lp3763
a(lp3764
a(lp3765
a(lp3766
a(lp3767
a(lp3768
Vdep
p3769
aa(lp3770
Vcase
p3771
aVdet
p3772
aVcompound
p3773
aa(lp3774
Vadvmod
p3775
aVnsubj
p3776
aVxcomp
p3777
aa(lp3778
Vdet
p3779
aVamod
p3780
aa(lp3781
Vmark
p3782
aViobj
p3783
aVdobj
p3784
aVnmod
p3785
aa(lp3786
Vadvmod
p3787
aVmark
p3788
aVnsubj
p3789
aVaux
p3790
aVneg
p3791
aVdobj
p3792
aa(lp3793
Vadvmod
p3794
aVxcomp
p3795
aa(lp3796
Vadvcl
p3797
aVpunct
p3798
aVnsubj
p3799
aVaux
p3800
aVneg
p3801
aVdobj
p3802
aVcc
p3803
aVconj
p3804
aVpunct
p3805
aVadvcl
p3806
aVpunct
p3807
aaa(lp3808
(lp3809
a(lp3810
a(lp3811
a(lp3812
a(lp3813
Vnmod:poss
p3814
aa(lp3815
Vnsubj
p3816
aVcop
p3817
aVadvmod
p3818
aVpunct
p3819
aaa(lp3820
(lp3821
a(lp3822
a(lp3823
a(lp3824
a(lp3825
a(lp3826
a(lp3827
Vcase
p3828
aa(lp3829
Vnmod:poss
p3830
aa(lp3831
Vnsubj
p3832
aVadvmod
p3833
aVdobj
p3834
aa(lp3835
Vdet
p3836
aVcc
p3837
aVconj
p3838
aVpunct
p3839
aaa(lp3840
(lp3841
a(lp3842
a(lp3843
Vamod
p3844
aVpunct
p3845
aaa(lp3846
(lp3847
a(lp3848
a(lp3849
a(lp3850
a(lp3851
a(lp3852
a(lp3853
a(lp3854
a(lp3855
a(lp3856
a(lp3857
Vamod
p3858
aa(lp3859
Vcase
p3860
aa(lp3861
Vdet
p3862
aVnummod
p3863
aa(lp3864
Vdet
p3865
aa(lp3866
Viobj
p3867
aVdobj
p3868
aa(lp3869
Vdobj
p3870
aVcc
p3871
aVconj
p3872
aa(lp3873
Vnsubj
p3874
aVcop
p3875
aVadvcl
p3876
aVcc
p3877
aVconj
p3878
aVpunct
p3879
aaa(lp3880
(lp3881
a(lp3882
a(lp3883
a(lp3884
a(lp3885
a(lp3886
a(lp3887
a(lp3888
a(lp3889
a(lp3890
a(lp3891
a(lp3892
a(lp3893
a(lp3894
Vcc
p3895
aVconj
p3896
aa(lp3897
Vcase
p3898
aVnummod
p3899
aa(lp3900
Vcase
p3901
aa(lp3902
Vadvmod
p3903
aVdobj
p3904
aVnmod
p3905
aa(lp3906
Vmark
p3907
aVdobj
p3908
aVcompound:prt
p3909
aVnmod
p3910
aVdep
p3911
aa(lp3912
Vdep
p3913
aVxcomp
p3914
aa(lp3915
Vcc
p3916
aVnsubj
p3917
aVccomp
p3918
aVpunct
p3919
aaa(lp3920
(lp3921
a(lp3922
a(lp3923
a(lp3924
a(lp3925
a(lp3926
a(lp3927
a(lp3928
a(lp3929
a(lp3930
a(lp3931
a(lp3932
a(lp3933
a(lp3934
a(lp3935
a(lp3936
a(lp3937
a(lp3938
a(lp3939
a(lp3940
a(lp3941
a(lp3942
a(lp3943
a(lp3944
a(lp3945
Vcase
p3946
aVnmod:poss
p3947
aa(lp3948
Vcase
p3949
aVnmod:poss
p3950
aa(lp3951
Vnmod:poss
p3952
aa(lp3953
Vmwe
p3954
aa(lp3955
Vnsubj
p3956
aVaux
p3957
aVdobj
p3958
aVadvmod
p3959
aa(lp3960
Vnmod:poss
p3961
aVcompound
p3962
aa(lp3963
Vadvmod
p3964
aa(lp3965
Vmark
p3966
aVdobj
p3967
aa(lp3968
Vmark
p3969
aVdobj
p3970
aVnmod
p3971
aa(lp3972
Vdobj
p3973
aVnmod
p3974
aVadvcl
p3975
aa(lp3976
Vcase
p3977
aVnummod
p3978
aVacl
p3979
aa(lp3980
Vnsubj
p3981
aVdobj
p3982
aVpunct
p3983
aVadvcl
p3984
aVpunct
p3985
aVcc
p3986
aVconj
p3987
aVpunct
p3988
aVdep
p3989
aVparataxis
p3990
aVpunct
p3991
aaa(lp3992
(lp3993
a(lp3994
a(lp3995
a(lp3996
a(lp3997
a(lp3998
a(lp3999
a(lp4000
a(lp4001
Vcc
p4002
aVconj
p4003
aVadvmod
p4004
aa(lp4005
Vdet
p4006
aVcompound
p4007
aa(lp4008
Vnsubj
p4009
aVaux
p4010
aVdobj
p4011
aVnmod
p4012
aVpunct
p4013
aaa(lp4014
(lp4015
a(lp4016
a(lp4017
a(lp4018
a(lp4019
a(lp4020
Vdet
p4021
aVcompound
p4022
aa(lp4023
Vmark
p4024
aa(lp4025
Vnsubj
p4026
aVcop
p4027
aVxcomp
p4028
aVpunct
p4029
aaa(lp4030
(lp4031
a(lp4032
a(lp4033
a(lp4034
a(lp4035
a(lp4036
a(lp4037
a(lp4038
a(lp4039
a(lp4040
a(lp4041
a(lp4042
a(lp4043
a(lp4044
a(lp4045
a(lp4046
Vcase
p4047
aVdet
p4048
aa(lp4049
Vcase
p4050
aa(lp4051
Vcase
p4052
aVnmod:poss
p4053
aVamod
p4054
aVamod
p4055
aVcompound
p4056
aa(lp4057
Vnmod
p4058
aa(lp4059
Vneg
p4060
aVnmod
p4061
aVnmod
p4062
aa(lp4063
Vacl
p4064
aVpunct
p4065
aVcc
p4066
aVconj
p4067
aa(lp4068
Vnsubj
p4069
aVaux
p4070
aVadvmod
p4071
aVdobj
p4072
aVpunct
p4073
aaa(lp4074
(lp4075
a(lp4076
a(lp4077
a(lp4078
a(lp4079
a(lp4080
a(lp4081
a(lp4082
a(lp4083
a(lp4084
a(lp4085
a(lp4086
a(lp4087
a(lp4088
a(lp4089
a(lp4090
Vcase
p4091
aVdet
p4092
aa(lp4093
Vmark
p4094
aVcop
p4095
aa(lp4096
Vmark
p4097
aVnmod
p4098
aa(lp4099
Vmark
p4100
aVnsubj
p4101
aVaux
p4102
aVneg
p4103
aVxcomp
p4104
aa(lp4105
Vadvcl
p4106
aVpunct
p4107
aVnsubj
p4108
aVcop
p4109
aVdet
p4110
aVamod
p4111
aVacl
p4112
aVpunct
p4113
aaa(lp4114
(lp4115
a(lp4116
a(lp4117
a(lp4118
a(lp4119
a(lp4120
a(lp4121
a(lp4122
a(lp4123
a(lp4124
Vcase
p4125
aa(lp4126
Vdet
p4127
aa(lp4128
Vnsubj
p4129
aVneg
p4130
aViobj
p4131
aVdobj
p4132
aa(lp4133
Vnsubj
p4134
aVadvmod
p4135
aVnmod
p4136
aVcc
p4137
aVconj
p4138
aVpunct
p4139
aaa(lp4140
(lp4141
a(lp4142
a(lp4143
a(lp4144
a(lp4145
a(lp4146
a(lp4147
a(lp4148
a(lp4149
Vcase
p4150
aa(lp4151
Vnmod:poss
p4152
aVcc
p4153
aVconj
p4154
aa(lp4155
Vadvmod
p4156
aVaux
p4157
aVneg
p4158
aVdobj
p4159
aVnmod
p4160
aVpunct
p4161
aaa(lp4162
(lp4163
a(lp4164
a(lp4165
a(lp4166
a(lp4167
a(lp4168
a(lp4169
a(lp4170
a(lp4171
a(lp4172
a(lp4173
a(lp4174
a(lp4175
Vdet
p4176
aa(lp4177
Vnmod:poss
p4178
aa(lp4179
Vadvmod
p4180
aa(lp4181
Vdobj
p4182
aVnsubj
p4183
aa(lp4184
Vmark
p4185
aVnsubj
p4186
aVccomp
p4187
aa(lp4188
Vnsubj
p4189
aVccomp
p4190
aa(lp4191
Vccomp
p4192
aa(lp4193
Vnsubj
p4194
aVaux
p4195
aVdobj
p4196
aVadvmod
p4197
aVxcomp
p4198
aa(lp4199
Vpunct
p4200
aVpunct
p4201
aVccomp
p4202
aVpunct
p4203
aaa(lp4204
(lp4205
a(lp4206
a(lp4207
a(lp4208
a(lp4209
a(lp4210
a(lp4211
a(lp4212
a(lp4213
a(lp4214
a(lp4215
a(lp4216
a(lp4217
a(lp4218
a(lp4219
a(lp4220
Vdet
p4221
aVamod
p4222
aa(lp4223
Vcase
p4224
aa(lp4225
Vnmod:npmod
p4226
aa(lp4227
Vnummod
p4228
aa(lp4229
Vnsubj
p4230
aVaux
p4231
aVneg
p4232
aVdobj
p4233
aVnmod:tmod
p4234
aa(lp4235
Vcase
p4236
aVdet
p4237
aVacl:relcl
p4238
aa(lp4239
Vcc
p4240
aVnsubj
p4241
aVaux
p4242
aVadvmod
p4243
aVdobj
p4244
aVpunct
p4245
aVnmod
p4246
aVpunct
p4247
aaa(lp4248
(lp4249
a(lp4250
a(lp4251
a(lp4252
a(lp4253
a(lp4254
Vnsubj
p4255
aVcop
p4256
aVdet
p4257
aVamod
p4258
aVpunct
p4259
aaa(lp4260
(lp4261
a(lp4262
a(lp4263
a(lp4264
a(lp4265
a(lp4266
a(lp4267
a(lp4268
Vdobj
p4269
aa(lp4270
Vacl
p4271
aa(lp4272
Vnsubj
p4273
aVdobj
p4274
aa(lp4275
Vcc
p4276
aVnmod:poss
p4277
aVadvmod
p4278
aVcc
p4279
aVconj
p4280
aVpunct
p4281
aaa(lp4282
(lp4283
a(lp4284
a(lp4285
a(lp4286
a(lp4287
Vnsubjpass
p4288
aVauxpass
p4289
aVadvmod
p4290
aVpunct
p4291
aaa(lp4292
(lp4293
a(lp4294
a(lp4295
a(lp4296
a(lp4297
a(lp4298
a(lp4299
a(lp4300
a(lp4301
a(lp4302
a(lp4303
Vamod
p4304
aa(lp4305
Vnsubj
p4306
aVcop
p4307
aVdet
p4308
aVamod
p4309
aVdep
p4310
aa(lp4311
Vadvmod
p4312
aVnsubj
p4313
aVaux
p4314
aVccomp
p4315
aa(lp4316
Vccomp
p4317
aa(lp4318
Vnsubj
p4319
aVccomp
p4320
aVpunct
p4321
aaa(lp4322
(lp4323
a(lp4324
a(lp4325
a(lp4326
a(lp4327
a(lp4328
a(lp4329
a(lp4330
a(lp4331
a(lp4332
a(lp4333
a(lp4334
a(lp4335
a(lp4336
a(lp4337
a(lp4338
Vcase
p4339
aa(lp4340
Vmark
p4341
aVcc
p4342
aVconj
p4343
aa(lp4344
Vnmod:poss
p4345
aa(lp4346
Vdet
p4347
aVamod
p4348
aVnmod
p4349
aa(lp4350
Vdobj
p4351
aVadvcl
p4352
aa(lp4353
Vnsubj
p4354
aVcop
p4355
aVcase
p4356
aVdet
p4357
aVcc
p4358
aVconj
p4359
aa(lp4360
Vnsubj
p4361
aVdobj
p4362
aVcc
p4363
aVconj
p4364
aVpunct
p4365
aaa(lp4366
(lp4367
a(lp4368
a(lp4369
a(lp4370
a(lp4371
a(lp4372
a(lp4373
Vdet
p4374
aa(lp4375
Vaux
p4376
aVneg
p4377
aVdobj
p4378
aa(lp4379
Vamod
p4380
aVpunct
p4381
aVdep
p4382
aVpunct
p4383
aaa(lp4384
(lp4385
a(lp4386
a(lp4387
a(lp4388
a(lp4389
a(lp4390
a(lp4391
a(lp4392
a(lp4393
a(lp4394
a(lp4395
a(lp4396
a(lp4397
a(lp4398
a(lp4399
a(lp4400
a(lp4401
a(lp4402
a(lp4403
Vcase
p4404
aa(lp4405
Vcase
p4406
aa(lp4407
Vadvmod
p4408
aVdet
p4409
aVcompound
p4410
aVcompound
p4411
aa(lp4412
Vadvmod
p4413
aa(lp4414
Vmark
p4415
aVnsubj
p4416
aVaux
p4417
aVneg
p4418
aVnmod
p4419
aa(lp4420
Vadvmod
p4421
aVcase
p4422
aVnmod
p4423
aa(lp4424
Vnsubj
p4425
aVcop
p4426
aVdet
p4427
aVamod
p4428
aVnmod
p4429
aVadvcl
p4430
aa(lp4431
Vamod
p4432
aVacl:relcl
p4433
aa(lp4434
Vcc
p4435
aVnsubj
p4436
aVpunct
p4437
aaa(lp4438
(lp4439
a(lp4440
a(lp4441
a(lp4442
a(lp4443
a(lp4444
a(lp4445
a(lp4446
a(lp4447
a(lp4448
a(lp4449
Vcase
p4450
aa(lp4451
Vnsubj
p4452
aVaux
p4453
aVdobj
p4454
aVnmod
p4455
aa(lp4456
Vnsubj
p4457
aVcop
p4458
aVdet
p4459
aVamod
p4460
aVcc
p4461
aVconj
p4462
aVpunct
p4463
aaa(lp4464
(lp4465
a(lp4466
a(lp4467
a(lp4468
a(lp4469
a(lp4470
Vdet
p4471
aVamod
p4472
aa(lp4473
Vnsubj
p4474
aVadvmod
p4475
aVdobj
p4476
aVpunct
p4477
aaa(lp4478
(lp4479
a(lp4480
a(lp4481
a(lp4482
a(lp4483
a(lp4484
a(lp4485
Vcase
p4486
aVcompound
p4487
aa(lp4488
Vmark
p4489
aVadvmod
p4490
aVnmod
p4491
aa(lp4492
Vdobj
p4493
aVxcomp
p4494
aVpunct
p4495
aaa(lp4496
(lp4497
a(lp4498
a(lp4499
a(lp4500
a(lp4501
a(lp4502
a(lp4503
a(lp4504
a(lp4505
a(lp4506
a(lp4507
Vmark
p4508
aVdobj
p4509
aa(lp4510
Vadvmod
p4511
aVnsubj
p4512
aVadvcl
p4513
aa(lp4514
Vadvmod
p4515
aVadvcl
p4516
aa(lp4517
Vnsubj
p4518
aVcop
p4519
aVpunct
p4520
aVcc
p4521
aVconj
p4522
aVpunct
p4523
aaa(lp4524
(lp4525
a(lp4526
a(lp4527
a(lp4528
a(lp4529
a(lp4530
a(lp4531
a(lp4532
Vnmod:poss
p4533
aVamod
p4534
aa(lp4535
Vnsubj
p4536
aVcop
p4537
aVcase
p4538
aVcc
p4539
aVconj
p4540
aVpunct
p4541
aaa(lp4542
(lp4543
a(lp4544
a(lp4545
a(lp4546
a(lp4547
a(lp4548
a(lp4549
a(lp4550
a(lp4551
Vcase
p4552
aVnmod:poss
p4553
aVamod
p4554
aVcompound
p4555
aa(lp4556
Vdet
p4557
aVcompound
p4558
aa(lp4559
Vnsubj
p4560
aVdobj
p4561
aVnmod
p4562
aVpunct
p4563
aaa(lp4564
(lp4565
a(lp4566
a(lp4567
a(lp4568
a(lp4569
a(lp4570
a(lp4571
a(lp4572
Vcase
p4573
aa(lp4574
Vdet
p4575
aVcompound
p4576
aa(lp4577
Vnmod:poss
p4578
aa(lp4579
Vcc
p4580
aVconj
p4581
aa(lp4582
Vcase
p4583
aVnmod
p4584
aa(lp4585
Vnsubj
p4586
aVdobj
p4587
aVnmod
p4588
aVpunct
p4589
aaa(lp4590
(lp4591
a(lp4592
a(lp4593
a(lp4594
a(lp4595
a(lp4596
a(lp4597
a(lp4598
a(lp4599
a(lp4600
Vcase
p4601
aa(lp4602
Vneg
p4603
aa(lp4604
Vadvmod
p4605
aa(lp4606
Vmark
p4607
aVcompound:prt
p4608
aVnmod
p4609
aa(lp4610
Vnsubj
p4611
aVcop
p4612
aVnmod:npmod
p4613
aVcc
p4614
aVconj
p4615
aVxcomp
p4616
aVpunct
p4617
aaa(lp4618
(lp4619
a(lp4620
a(lp4621
a(lp4622
a(lp4623
a(lp4624
a(lp4625
a(lp4626
a(lp4627
Vdet
p4628
aa(lp4629
Vdet
p4630
aa(lp4631
Vnsubj
p4632
aVdobj
p4633
aa(lp4634
Vnsubj
p4635
aVccomp
p4636
aa(lp4637
Vnsubj
p4638
aVcop
p4639
aVdet
p4640
aVamod
p4641
aVacl:relcl
p4642
aVpunct
p4643
aaa(lp4644
(lp4645
a(lp4646
a(lp4647
a(lp4648
a(lp4649
a(lp4650
Vnsubj
p4651
aVadvmod
p4652
aVpunct
p4653
aVadvmod
p4654
aVpunct
p4655
aaa(lp4656
(lp4657
a(lp4658
a(lp4659
a(lp4660
a(lp4661
a(lp4662
Vmark
p4663
aVcop
p4664
aa(lp4665
Vnsubjpass
p4666
aVauxpass
p4667
aVxcomp
p4668
aVpunct
p4669
aaa(lp4670
(lp4671
a(lp4672
a(lp4673
a(lp4674
a(lp4675
Vdet
p4676
aa(lp4677
Vmark
p4678
aa(lp4679
Vnsubjpass
p4680
aVauxpass
p4681
aVadvcl
p4682
aVpunct
p4683
aaa(lp4684
(lp4685
a(lp4686
a(lp4687
a(lp4688
a(lp4689
a(lp4690
a(lp4691
a(lp4692
a(lp4693
Vcase
p4694
aVdet
p4695
aVamod
p4696
aa(lp4697
Vnsubj
p4698
aVcop
p4699
aVdet
p4700
aVamod
p4701
aVnmod
p4702
aVpunct
p4703
aaa(lp4704
(lp4705
a(lp4706
a(lp4707
a(lp4708
a(lp4709
a(lp4710
a(lp4711
a(lp4712
a(lp4713
Vcase
p4714
aa(lp4715
Vcompound
p4716
aVpunct
p4717
aa(lp4718
Vadvmod
p4719
aVdet
p4720
aVnummod
p4721
aa(lp4722
Vnsubj
p4723
aVaux
p4724
aVdobj
p4725
aVpunct
p4726
aaa(lp4727
(lp4728
a(lp4729
a(lp4730
a(lp4731
a(lp4732
a(lp4733
a(lp4734
a(lp4735
a(lp4736
a(lp4737
a(lp4738
a(lp4739
a(lp4740
a(lp4741
a(lp4742
a(lp4743
a(lp4744
a(lp4745
a(lp4746
a(lp4747
a(lp4748
a(lp4749
a(lp4750
Vnsubj
p4751
aVcop
p4752
aVneg
p4753
aVdep
p4754
aa(lp4755
Vcase
p4756
aVnmod:poss
p4757
aa(lp4758
Vmark
p4759
aa(lp4760
Vmark
p4761
aVcop
p4762
aVxcomp
p4763
aa(lp4764
Vdobj
p4765
aVnsubj
p4766
aVaux
p4767
aVneg
p4768
aVnmod
p4769
aa(lp4770
Vdet
p4771
aVamod
p4772
aVacl:relcl
p4773
aa(lp4774
Vdobj
p4775
aVnsubj
p4776
aVxcomp
p4777
aa(lp4778
Vacl:relcl
p4779
aa(lp4780
Vmark
p4781
aVadvmod
p4782
aVexpl
p4783
aVnsubj
p4784
aVcc
p4785
aVconj
p4786
aa(lp4787
Vnsubj
p4788
aVccomp
p4789
aVpunct
p4790
aaa(lp4791
(lp4792
a(lp4793
a(lp4794
a(lp4795
a(lp4796
a(lp4797
a(lp4798
a(lp4799
Vdobj
p4800
aa(lp4801
Vamod
p4802
aa(lp4803
Vdet
p4804
aVamod
p4805
aa(lp4806
Vadvcl
p4807
aVpunct
p4808
aVnsubj
p4809
aVaux
p4810
aVdobj
p4811
aVpunct
p4812
aaa(lp4813
(lp4814
a(lp4815
a(lp4816
a(lp4817
a(lp4818
a(lp4819
a(lp4820
a(lp4821
a(lp4822
a(lp4823
a(lp4824
a(lp4825
Vcase
p4826
aa(lp4827
Vcase
p4828
aVdet
p4829
aa(lp4830
Vnmod
p4831
aVaux
p4832
aa(lp4833
Vnsubj
p4834
aVaux
p4835
aVneg
p4836
aVcop
p4837
aVdet
p4838
aVnmod
p4839
aVpunct
p4840
aVparataxis
p4841
aVpunct
p4842
aaa(lp4843
(lp4844
a(lp4845
a(lp4846
a(lp4847
a(lp4848
a(lp4849
a(lp4850
a(lp4851
a(lp4852
a(lp4853
a(lp4854
a(lp4855
a(lp4856
a(lp4857
a(lp4858
a(lp4859
a(lp4860
a(lp4861
a(lp4862
Vcompound
p4863
aa(lp4864
Vmwe
p4865
aVmwe
p4866
aa(lp4867
Vmwe
p4868
aa(lp4869
Vdet
p4870
aVcase
p4871
aa(lp4872
Vcase
p4873
aVnmod:poss
p4874
aa(lp4875
Vnsubj
p4876
aVnmod
p4877
aa(lp4878
Vdet
p4879
aVamod
p4880
aVcompound
p4881
aVacl:relcl
p4882
aa(lp4883
Vcase
p4884
aVnmod:poss
p4885
aVamod
p4886
aVcompound
p4887
aVpunct
p4888
aVcc
p4889
aVconj
p4890
aa(lp4891
Vnsubj
p4892
aVadvmod
p4893
aVcompound:prt
p4894
aVnmod
p4895
aVpunct
p4896
aaa(lp4897
(lp4898
a(lp4899
a(lp4900
a(lp4901
a(lp4902
a(lp4903
Vcase
p4904
aVdet:predet
p4905
aVdet
p4906
aVamod
p4907
aa(lp4908
Vnmod
p4909
aVpunct
p4910
aaa(lp4911
(lp4912
a(lp4913
a(lp4914
a(lp4915
a(lp4916
a(lp4917
a(lp4918
a(lp4919
a(lp4920
Vcase
p4921
aVamod
p4922
aVcompound
p4923
aa(lp4924
Vamod
p4925
aVcc
p4926
aVconj
p4927
aVnmod
p4928
aa(lp4929
Vnsubj
p4930
aVdobj
p4931
aVpunct
p4932
aaa(lp4933
(lp4934
a(lp4935
a(lp4936
a(lp4937
a(lp4938
a(lp4939
a(lp4940
a(lp4941
a(lp4942
a(lp4943
a(lp4944
Vnsubj
p4945
aVcop
p4946
aVdet
p4947
aVamod
p4948
aa(lp4949
Vcase
p4950
aVdet
p4951
aa(lp4952
Vadvmod
p4953
aVmark
p4954
aVpunct
p4955
aVnmod
p4956
aVccomp
p4957
aVpunct
p4958
aaa(lp4959
(lp4960
a(lp4961
a(lp4962
a(lp4963
a(lp4964
a(lp4965
a(lp4966
a(lp4967
a(lp4968
a(lp4969
Vadvmod
p4970
aVcase
p4971
aa(lp4972
Vnsubj
p4973
aVcop
p4974
aVpunct
p4975
aVnmod
p4976
aa(lp4977
Vdet
p4978
aVamod
p4979
aVcc
p4980
aVconj
p4981
aVpunct
p4982
aaa(lp4983
(lp4984
a(lp4985
a(lp4986
a(lp4987
a(lp4988
a(lp4989
a(lp4990
a(lp4991
Vmark
p4992
aVnsubj
p4993
aVadvmod
p4994
aa(lp4995
Vadvcl
p4996
aa(lp4997
Vcase
p4998
aVamod
p4999
aa(lp5000
Vnmod
p5001
aa(lp5002
Vneg
p5003
aa(lp5004
Vdep
p5005
aa(lp5006
Vcase
p5007
aVnmod:poss
p5008
aVdep
p5009
aVpunct
p5010
aaa(lp5011
(lp5012
a(lp5013
a(lp5014
a(lp5015
a(lp5016
a(lp5017
a(lp5018
a(lp5019
a(lp5020
a(lp5021
a(lp5022
a(lp5023
a(lp5024
Vmwe
p5025
aVmwe
p5026
aa(lp5027
Vcase
p5028
aa(lp5029
Vnsubj
p5030
aVaux
p5031
aVadvmod
p5032
aVadvmod
p5033
aa(lp5034
Vdet
p5035
aVamod
p5036
aVnmod
p5037
aa(lp5038
Vnsubj
p5039
aVcop
p5040
aVadvmod
p5041
aVamod
p5042
aVacl:relcl
p5043
aVpunct
p5044
aaa(lp5045
(lp5046
a(lp5047
a(lp5048
a(lp5049
a(lp5050
a(lp5051
Vdet
p5052
aVamod
p5053
aa(lp5054
Vnsubj
p5055
aVcop
p5056
aVdobj
p5057
aVpunct
p5058
aaa(lp5059
(lp5060
a(lp5061
a(lp5062
a(lp5063
a(lp5064
Vcase
p5065
aVcompound
p5066
aa(lp5067
Vamod
p5068
aVnmod
p5069
aVpunct
p5070
aaa(lp5071
(lp5072
a(lp5073
a(lp5074
a(lp5075
a(lp5076
a(lp5077
a(lp5078
a(lp5079
a(lp5080
a(lp5081
a(lp5082
a(lp5083
a(lp5084
a(lp5085
Vcase
p5086
aa(lp5087
Vcase
p5088
aVdet
p5089
aa(lp5090
Vcase
p5091
aVdet
p5092
aa(lp5093
Vnmod
p5094
aa(lp5095
Vcase
p5096
aVnmod
p5097
aa(lp5098
Vadvmod
p5099
aVpunct
p5100
aVnsubj
p5101
aVcop
p5102
aVadvmod
p5103
aVnmod
p5104
aVpunct
p5105
aVcc
p5106
aVconj
p5107
aVpunct
p5108
aaa(lp5109
(lp5110
a(lp5111
a(lp5112
a(lp5113
a(lp5114
a(lp5115
a(lp5116
a(lp5117
a(lp5118
Vadvmod
p5119
aa(lp5120
Vdet
p5121
aa(lp5122
Vdet
p5123
aVcompound
p5124
aa(lp5125
Vnsubj
p5126
aVaux
p5127
aVneg
p5128
aVdobj
p5129
aVpunct
p5130
aVadvmod
p5131
aVpunct
p5132
aaa(lp5133
(lp5134
a(lp5135
a(lp5136
a(lp5137
a(lp5138
a(lp5139
Vcase
p5140
aVdet
p5141
aa(lp5142
Vnsubj
p5143
aVdobj
p5144
aVnmod
p5145
aVpunct
p5146
aaa(lp5147
(lp5148
a(lp5149
a(lp5150
a(lp5151
a(lp5152
a(lp5153
a(lp5154
a(lp5155
a(lp5156
a(lp5157
a(lp5158
a(lp5159
Vcase
p5160
aa(lp5161
Vcase
p5162
aVnmod:poss
p5163
aa(lp5164
Vcase
p5165
aVamod
p5166
aVnmod
p5167
aa(lp5168
Vnmod
p5169
aa(lp5170
Vacl
p5171
aa(lp5172
Vcase
p5173
aVamod
p5174
aVnmod
p5175
aa(lp5176
Vadvmod
p5177
aVnmod
p5178
aa(lp5179
Vnsubj
p5180
aVcop
p5181
aVadvmod
p5182
aVadvcl
p5183
aVpunct
p5184
aaa(lp5185
(lp5186
a(lp5187
a(lp5188
a(lp5189
a(lp5190
a(lp5191
a(lp5192
a(lp5193
a(lp5194
Vcase
p5195
aVdet
p5196
aVamod
p5197
aa(lp5198
Vnsubj
p5199
aVcop
p5200
aVdet
p5201
aVamod
p5202
aVnmod
p5203
aVpunct
p5204
aaa(lp5205
(lp5206
a(lp5207
a(lp5208
a(lp5209
a(lp5210
a(lp5211
a(lp5212
a(lp5213
a(lp5214
a(lp5215
a(lp5216
a(lp5217
a(lp5218
a(lp5219
a(lp5220
a(lp5221
a(lp5222
a(lp5223
a(lp5224
a(lp5225
a(lp5226
a(lp5227
a(lp5228
a(lp5229
a(lp5230
Vcase
p5231
aa(lp5232
Vdet
p5233
aVcompound
p5234
aa(lp5235
Vdet
p5236
aVamod
p5237
aVcompound
p5238
aa(lp5239
Vamod
p5240
aVcompound
p5241
aa(lp5242
Vnmod
p5243
aa(lp5244
Vnsubj
p5245
aVdobj
p5246
aa(lp5247
Vdobj
p5248
aVnsubj
p5249
aVaux
p5250
aVadvmod
p5251
aVcc
p5252
aVconj
p5253
aa(lp5254
Vcase
p5255
aVdet
p5256
aVamod
p5257
aVacl:relcl
p5258
aa(lp5259
Vnsubj
p5260
aVnmod
p5261
aa(lp5262
Vmark
p5263
aVnsubj
p5264
aVaux
p5265
aVdobj
p5266
aVcc
p5267
aVconj
p5268
aa(lp5269
Vnsubj
p5270
aVcop
p5271
aVadvcl
p5272
aa(lp5273
Vcc
p5274
aVccomp
p5275
aVpunct
p5276
aaa(lp5277
(lp5278
a(lp5279
a(lp5280
a(lp5281
a(lp5282
a(lp5283
a(lp5284
a(lp5285
a(lp5286
a(lp5287
Vcase
p5288
aVdet
p5289
aa(lp5290
Vnsubj
p5291
aVdobj
p5292
aVnmod
p5293
aa(lp5294
Vacl:relcl
p5295
aa(lp5296
Vcase
p5297
aVdep
p5298
aa(lp5299
Vmark
p5300
aVdobj
p5301
aVnmod
p5302
aa(lp5303
Vnsubj
p5304
aVxcomp
p5305
aVpunct
p5306
aaa(lp5307
(lp5308
a(lp5309
a(lp5310
a(lp5311
a(lp5312
a(lp5313
a(lp5314
a(lp5315
a(lp5316
a(lp5317
a(lp5318
Vcompound
p5319
aVcompound
p5320
aVcompound
p5321
aVcompound
p5322
aVcompound
p5323
aVcompound
p5324
aVcompound
p5325
aVcompound
p5326
aa(lp5327
Vnsubj
p5328
aVdobj
p5329
aVpunct
p5330
aaa(lp5331
(lp5332
a(lp5333
a(lp5334
a(lp5335
a(lp5336
a(lp5337
a(lp5338
a(lp5339
a(lp5340
Vneg
p5341
aVadvmod
p5342
aVadvmod
p5343
aa(lp5344
Vneg
p5345
aVamod
p5346
aVpunct
p5347
aVcc
p5348
aVconj
p5349
aVpunct
p5350
aaa(lp5351
(lp5352
a(lp5353
a(lp5354
a(lp5355
a(lp5356
a(lp5357
Vmark
p5358
aa(lp5359
Vamod
p5360
aVcc
p5361
aVconj
p5362
aVxcomp
p5363
aa(lp5364
Vdep
p5365
aVpunct
p5366
aaa(lp5367
(lp5368
a(lp5369
a(lp5370
a(lp5371
a(lp5372
a(lp5373
a(lp5374
a(lp5375
a(lp5376
Vamod
p5377
aVcompound
p5378
aa(lp5379
Vmark
p5380
aVdobj
p5381
aa(lp5382
Vnsubj
p5383
aVcop
p5384
aVdet
p5385
aVamod
p5386
aVacl
p5387
aVpunct
p5388
aaa(lp5389
(lp5390
a(lp5391
a(lp5392
a(lp5393
a(lp5394
a(lp5395
a(lp5396
a(lp5397
a(lp5398
a(lp5399
a(lp5400
a(lp5401
a(lp5402
a(lp5403
Vadvmod
p5404
aa(lp5405
Vdet
p5406
aa(lp5407
Vnsubj
p5408
aVaux
p5409
aVcase
p5410
aa(lp5411
Vnsubj
p5412
aVccomp
p5413
aa(lp5414
Vadvmod
p5415
aVdet
p5416
aVacl:relcl
p5417
aa(lp5418
Vnsubj
p5419
aVadvmod
p5420
aVdobj
p5421
aa(lp5422
Vnsubj
p5423
aVcop
p5424
aVadvmod
p5425
aVcc
p5426
aVconj
p5427
aVpunct
p5428
aaa(lp5429
(lp5430
a(lp5431
a(lp5432
a(lp5433
a(lp5434
a(lp5435
a(lp5436
a(lp5437
Vamod
p5438
aVamod
p5439
aa(lp5440
Vcase
p5441
aa(lp5442
Vmark
p5443
aVnsubj
p5444
aVdobj
p5445
aVnmod
p5446
aa(lp5447
Vnsubj
p5448
aVccomp
p5449
aVpunct
p5450
aaa(lp5451
(lp5452
a(lp5453
a(lp5454
a(lp5455
a(lp5456
a(lp5457
a(lp5458
a(lp5459
a(lp5460
Vmark
p5461
aVadvmod
p5462
aa(lp5463
Vnsubj
p5464
aVcop
p5465
aVadvmod
p5466
aVdet
p5467
aVamod
p5468
aVacl
p5469
aVpunct
p5470
aaa(lp5471
(lp5472
a(lp5473
a(lp5474
a(lp5475
Vamod
p5476
aVadvmod
p5477
aVpunct
p5478
aaa(lp5479
(lp5480
a(lp5481
a(lp5482
a(lp5483
a(lp5484
a(lp5485
a(lp5486
a(lp5487
a(lp5488
a(lp5489
a(lp5490
a(lp5491
Vnmod:poss
p5492
aa(lp5493
Vadvmod
p5494
aVnsubj
p5495
aa(lp5496
Vdobj
p5497
aa(lp5498
Vmark
p5499
aVadvmod
p5500
aVcompound:prt
p5501
aVdobj
p5502
aVcc
p5503
aVconj
p5504
aa(lp5505
Vadvcl
p5506
aVnsubj
p5507
aVaux
p5508
aVxcomp
p5509
aVpunct
p5510
aaa(lp5511
(lp5512
a(lp5513
a(lp5514
a(lp5515
a(lp5516
a(lp5517
a(lp5518
a(lp5519
a(lp5520
a(lp5521
a(lp5522
a(lp5523
Vdet
p5524
aVcompound
p5525
aa(lp5526
Vdobj
p5527
aVnsubj
p5528
aVaux
p5529
aVadvmod
p5530
aa(lp5531
Vnsubj
p5532
aVcop
p5533
aVdet
p5534
aVamod
p5535
aVcompound
p5536
aVacl:relcl
p5537
aVpunct
p5538
aaa(lp5539
(lp5540
a(lp5541
a(lp5542
a(lp5543
a(lp5544
a(lp5545
a(lp5546
a(lp5547
a(lp5548
a(lp5549
Vnmod:poss
p5550
aa(lp5551
Vcase
p5552
aVdet
p5553
aa(lp5554
Vmark
p5555
aVcop
p5556
aVdet
p5557
aVamod
p5558
aVnmod
p5559
aa(lp5560
Vnsubj
p5561
aVaux
p5562
aVadvcl
p5563
aVpunct
p5564
aaa(lp5565
(lp5566
a(lp5567
a(lp5568
a(lp5569
a(lp5570
a(lp5571
a(lp5572
a(lp5573
a(lp5574
a(lp5575
Vcase
p5576
aVdet
p5577
aVamod
p5578
aa(lp5579
Vnsubj
p5580
aVaux
p5581
aVcop
p5582
aVdet
p5583
aVcompound
p5584
aVnmod
p5585
aVpunct
p5586
aaa(lp5587
(lp5588
a(lp5589
a(lp5590
a(lp5591
a(lp5592
a(lp5593
a(lp5594
a(lp5595
a(lp5596
a(lp5597
a(lp5598
a(lp5599
a(lp5600
a(lp5601
a(lp5602
a(lp5603
a(lp5604
Vdet
p5605
aVcompound
p5606
aVcompound
p5607
aa(lp5608
Vcase
p5609
aVdet
p5610
aa(lp5611
Vcase
p5612
aVnmod:poss
p5613
aa(lp5614
Vnmod
p5615
aa(lp5616
Vaux
p5617
aVcop
p5618
aVadvmod
p5619
aVnmod
p5620
aa(lp5621
Vnsubj
p5622
aVadvmod
p5623
aVaux
p5624
aVdobj
p5625
aVcc
p5626
aVconj
p5627
aVcc
p5628
aVconj
p5629
aVpunct
p5630
aaaa(lp5631
(lp5632
I0
aI0
aI0
aI0
aI2
aI3
aa(lp5633
I0
aI0
aI0
aI0
aI0
aI0
aI0
aI0
aI0
aI0
aI0
aI0
aI0
aI0
aI0
aI0
aI1
aI1
aI2
aI1
aI6
aI4
aI7
aa(lp5634
I0
aI0
aI0
aI0
aI0
aI0
aI0
aI0
aI2
aI1
aI1
aI1
aI1
aI2
aI1
aI3
aI3
aI2
aa(lp5635
I0
aI0
aI0
aI0
aI0
aI2
aI4
aa(lp5636
I0
aI0
aI0
aI0
aI0
aI0
aI0
aI0
aI0
aI1
aI1
aI2
aI1
aI2
aI7
aa(lp5637
I0
aI0
aI0
aI0
aI0
aI0
aI0
aI0
aI0
aI1
aI1
aI1
aI4
aI6
aa(lp5638
I0
aI0
aI0
aI0
aI0
aI0
aI0
aI0
aI0
aI0
aI0
aI0
aI0
aI0
aI0
aI0
aI0
aI0
aI0
aI0
aI0
aI0
aI1
aI1
aI1
aI3
aI2
aI2
aI3
aI2
aI5
aI6
aI4
aI3
aa(lp5639
I0
aI0
aI0
aI0
aI0
aI0
aI0
aI2
aI6
aa(lp5640
I0
aI0
aI0
aI0
aI1
aI1
aI4
aa(lp5641
I0
aI0
aI0
aI0
aI1
aI2
aI3
aa(lp5642
I0
aI0
aI0
aI0
aI0
aI0
aI0
aI0
aI0
aI0
aI0
aI1
aI4
aI2
aI7
aa(lp5643
I0
aI0
aI0
aI0
aI0
aI0
aI0
aI0
aI0
aI0
aI0
aI0
aI0
aI5
aI1
aI9
aa(lp5644
I0
aI0
aI0
aI0
aI0
aI0
aI0
aI0
aI1
aI2
aI1
aI1
aI4
aI3
aI1
aI2
aa(lp5645
I0
aI0
aI0
aI0
aI0
aI0
aI1
aI1
aI2
aI1
aI5
aa(lp5646
I0
aI0
aI0
aI0
aI0
aI0
aI0
aI0
aI0
aI0
aI0
aI0
aI0
aI1
aI2
aI2
aI4
aI1
aI2
aI7
aa(lp5647
I0
aI0
aI0
aI0
aI0
aI5
aa(lp5648
I0
aI0
aI0
aI0
aI0
aI0
aI0
aI0
aI0
aI1
aI1
aI3
aI2
aI2
aI5
aa(lp5649
I0
aI0
aI0
aI0
aI0
aI0
aI0
aI0
aI0
aI0
aI0
aI0
aI0
aI1
aI3
aI4
aI3
aI2
aI1
aI1
aI5
aa(lp5650
I0
aI0
aI0
aI0
aI0
aI0
aI0
aI0
aI0
aI2
aI8
aa(lp5651
I0
aI0
aI0
aI0
aI0
aI0
aI0
aI0
aI0
aI0
aI0
aI0
aI1
aI3
aI2
aI2
aI4
aI5
aa(lp5652
I0
aI0
aI0
aI0
aI0
aI0
aI0
aI0
aI0
aI0
aI2
aI1
aI3
aI3
aI5
aa(lp5653
I0
aI0
aI0
aI1
aI1
aI3
aa(lp5654
I0
aI0
aI0
aI0
aI0
aI0
aI0
aI0
aI0
aI0
aI0
aI0
aI2
aI6
aI6
aa(lp5655
I0
aI0
aI0
aI0
aI0
aI0
aI0
aI3
aI5
aa(lp5656
I0
aI0
aI0
aI0
aI0
aI0
aI0
aI1
aI1
aI7
aa(lp5657
I0
aI0
aI0
aI0
aI0
aI0
aI0
aI0
aI0
aI0
aI0
aI0
aI0
aI0
aI0
aI0
aI0
aI0
aI1
aI1
aI2
aI1
aI3
aI2
aI6
aI2
aI8
aa(lp5658
I0
aI0
aI0
aI0
aI0
aI0
aI1
aI6
aa(lp5659
I0
aI0
aI0
aI0
aI0
aI0
aI2
aI5
aa(lp5660
I0
aI0
aI0
aI0
aI0
aI2
aI4
aa(lp5661
I0
aI0
aI0
aI0
aI0
aI0
aI0
aI0
aI0
aI0
aI3
aI2
aI1
aI3
aI5
aa(lp5662
I0
aI0
aI0
aI0
aI0
aI0
aI0
aI0
aI0
aI1
aI4
aI6
aa(lp5663
I0
aI0
aI0
aI0
aI0
aI0
aI0
aI0
aI0
aI0
aI0
aI0
aI0
aI3
aI2
aI1
aI4
aI7
aa(lp5664
I0
aI0
aI0
aI0
aI0
aI0
aI0
aI0
aI0
aI0
aI0
aI0
aI0
aI0
aI0
aI0
aI0
aI0
aI0
aI0
aI0
aI0
aI0
aI0
aI0
aI1
aI3
aI3
aI2
aI4
aI6
aI2
aI11
aa(lp5665
I0
aI0
aI0
aI0
aI1
aI4
aa(lp5666
I0
aI0
aI0
aI0
aI0
aI0
aI1
aI1
aI3
aI4
aa(lp5667
I0
aI0
aI2
aa(lp5668
I0
aI0
aI0
aI0
aI0
aI0
aI0
aI0
aI0
aI0
aI1
aI1
aI2
aI1
aI2
aI3
aI6
aa(lp5669
I0
aI0
aI0
aI0
aI0
aI0
aI0
aI0
aI0
aI0
aI0
aI0
aI0
aI2
aI2
aI1
aI3
aI5
aI2
aI4
aa(lp5670
I0
aI0
aI0
aI0
aI0
aI0
aI0
aI0
aI0
aI0
aI0
aI0
aI0
aI0
aI0
aI0
aI0
aI0
aI0
aI0
aI0
aI0
aI0
aI0
aI2
aI2
aI1
aI1
aI4
aI2
aI1
aI2
aI3
aI3
aI3
aI11
aa(lp5671
I0
aI0
aI0
aI0
aI0
aI0
aI0
aI0
aI3
aI2
aI5
aa(lp5672
I0
aI0
aI0
aI0
aI0
aI2
aI1
aI4
aa(lp5673
I0
aI0
aI0
aI0
aI0
aI0
aI0
aI0
aI0
aI0
aI0
aI0
aI0
aI0
aI0
aI2
aI1
aI5
aI1
aI3
aI4
aI5
aa(lp5674
I0
aI0
aI0
aI0
aI0
aI0
aI0
aI0
aI0
aI0
aI0
aI0
aI0
aI0
aI0
aI2
aI2
aI2
aI5
aI8
aa(lp5675
I0
aI0
aI0
aI0
aI0
aI0
aI0
aI0
aI0
aI1
aI1
aI4
aI6
aa(lp5676
I0
aI0
aI0
aI0
aI0
aI0
aI0
aI0
aI1
aI3
aI6
aa(lp5677
I0
aI0
aI0
aI0
aI0
aI0
aI0
aI0
aI0
aI0
aI0
aI0
aI1
aI1
aI1
aI2
aI3
aI2
aI1
aI5
aI4
aa(lp5678
I0
aI0
aI0
aI0
aI0
aI0
aI0
aI0
aI0
aI0
aI0
aI0
aI0
aI0
aI0
aI2
aI1
aI1
aI1
aI5
aI3
aI8
aa(lp5679
I0
aI0
aI0
aI0
aI0
aI5
aa(lp5680
I0
aI0
aI0
aI0
aI0
aI0
aI0
aI1
aI1
aI2
aI6
aa(lp5681
I0
aI0
aI0
aI0
aI4
aa(lp5682
I0
aI0
aI0
aI0
aI0
aI0
aI0
aI0
aI0
aI0
aI1
aI5
aI4
aI1
aI3
aa(lp5683
I0
aI0
aI0
aI0
aI0
aI0
aI0
aI0
aI0
aI0
aI0
aI0
aI0
aI0
aI0
aI1
aI3
aI1
aI3
aI2
aI6
aI5
aa(lp5684
I0
aI0
aI0
aI0
aI0
aI0
aI1
aI3
aI4
aa(lp5685
I0
aI0
aI0
aI0
aI0
aI0
aI0
aI0
aI0
aI0
aI0
aI0
aI0
aI0
aI0
aI0
aI0
aI0
aI1
aI1
aI4
aI1
aI5
aI3
aI6
aI2
aI3
aa(lp5686
I0
aI0
aI0
aI0
aI0
aI0
aI0
aI0
aI0
aI0
aI1
aI4
aI7
aa(lp5687
I0
aI0
aI0
aI0
aI0
aI2
aI4
aa(lp5688
I0
aI0
aI0
aI0
aI0
aI0
aI2
aI3
aI3
aa(lp5689
I0
aI0
aI0
aI0
aI0
aI0
aI0
aI0
aI0
aI0
aI2
aI3
aI2
aI6
aa(lp5690
I0
aI0
aI0
aI0
aI0
aI0
aI0
aI2
aI6
aa(lp5691
I0
aI0
aI0
aI0
aI0
aI0
aI0
aI0
aI4
aI2
aI4
aa(lp5692
I0
aI0
aI0
aI0
aI0
aI0
aI0
aI1
aI2
aI1
aI2
aI2
aI4
aa(lp5693
I0
aI0
aI0
aI0
aI0
aI0
aI0
aI0
aI0
aI1
aI1
aI1
aI3
aI7
aa(lp5694
I0
aI0
aI0
aI0
aI0
aI0
aI0
aI0
aI1
aI1
aI2
aI2
aI6
aa(lp5695
I0
aI0
aI0
aI0
aI0
aI5
aa(lp5696
I0
aI0
aI0
aI0
aI0
aI2
aI4
aa(lp5697
I0
aI0
aI0
aI0
aI1
aI1
aI4
aa(lp5698
I0
aI0
aI0
aI0
aI0
aI0
aI0
aI0
aI3
aI6
aa(lp5699
I0
aI0
aI0
aI0
aI0
aI0
aI0
aI0
aI1
aI2
aI3
aI4
aa(lp5700
I0
aI0
aI0
aI0
aI0
aI0
aI0
aI0
aI0
aI0
aI0
aI0
aI0
aI0
aI0
aI0
aI0
aI0
aI0
aI0
aI0
aI0
aI4
aI2
aI1
aI3
aI5
aI3
aI3
aI1
aI6
aI3
aa(lp5701
I0
aI0
aI0
aI0
aI0
aI0
aI0
aI1
aI1
aI2
aI6
aa(lp5702
I0
aI0
aI0
aI0
aI0
aI0
aI0
aI0
aI0
aI0
aI0
aI1
aI2
aI2
aI9
aa(lp5703
I0
aI0
aI0
aI0
aI0
aI0
aI0
aI0
aI0
aI0
aI0
aI0
aI0
aI0
aI0
aI0
aI0
aI0
aI1
aI2
aI1
aI2
aI2
aI2
aI4
aI7
aI5
aa(lp5704
I0
aI0
aI0
aI0
aI0
aI4
aI2
aa(lp5705
I0
aI0
aI0
aI0
aI0
aI0
aI0
aI0
aI3
aI4
aI3
aa(lp5706
I0
aI0
aI0
aI0
aI0
aI0
aI0
aI0
aI0
aI0
aI4
aI2
aI6
aa(lp5707
I0
aI0
aI0
aI0
aI0
aI0
aI0
aI0
aI0
aI2
aI4
aI5
aa(lp5708
I0
aI0
aI0
aI0
aI0
aI0
aI0
aI3
aI1
aI2
aI1
aI1
aI1
aI4
aa(lp5709
I0
aI0
aI0
aI0
aI0
aI0
aI0
aI0
aI0
aI0
aI0
aI0
aI2
aI1
aI4
aI3
aI6
aa(lp5710
I0
aI0
aI0
aI0
aI0
aI2
aI4
aa(lp5711
I0
aI0
aI0
aI0
aI2
aI3
aa(lp5712
I0
aI0
aI0
aI0
aI0
aI0
aI0
aI0
aI0
aI0
aI0
aI0
aI0
aI1
aI2
aI2
aI1
aI2
aI10
aa(lp5713
I0
aI0
aI0
aI0
aI0
aI0
aI0
aI0
aI1
aI1
aI2
aI7
aa(lp5714
I0
aI0
aI0
aI0
aI0
aI2
aI4
aa(lp5715
I0
aI0
aI0
aI0
aI0
aI0
aI0
aI0
aI0
aI0
aI0
aI1
aI2
aI3
aI1
aI1
aI3
aI2
aI5
aa(lp5716
I0
aI0
aI0
aI0
aI0
aI0
aI0
aI0
aI3
aI6
aa(lp5717
I0
aI0
aI0
aI0
aI0
aI0
aI0
aI0
aI0
aI0
aI0
aI0
aI0
aI0
aI0
aI0
aI0
aI0
aI0
aI0
aI0
aI0
aI0
aI0
aI1
aI2
aI3
aI2
aI1
aI2
aI6
aI4
aI2
aI6
aI3
aI3
aa(lp5718
I0
aI0
aI0
aI0
aI0
aI0
aI0
aI0
aI0
aI2
aI3
aI1
aI2
aI3
aI3
aa(lp5719
I0
aI0
aI0
aI0
aI0
aI0
aI0
aI0
aI0
aI0
aI8
aI3
aa(lp5720
I0
aI0
aI0
aI0
aI0
aI0
aI0
aI0
aI3
aI6
aa(lp5721
I0
aI0
aI0
aI0
aI0
aI1
aI4
aI2
aa(lp5722
I0
aI0
aI0
aI0
aI0
aI0
aI0
aI0
aI2
aI2
aI6
aa(lp5723
I0
aI0
aI0
aI0
aI0
aI0
aI0
aI0
aI0
aI0
aI0
aI0
aI0
aI1
aI1
aI3
aI2
aI3
aI3
aI6
aa(lp5724
I0
aI0
aI0
aI0
aI0
aI0
aI0
aI2
aI1
aI4
aI3
aa(lp5725
I0
aI0
aI0
aI0
aI0
aI0
aI0
aI0
aI2
aI7
aa(lp5726
I0
aI0
aI0
aI3
aa(lp5727
I0
aI0
aI0
aI0
aI0
aI0
aI0
aI0
aI0
aI0
aI0
aI1
aI2
aI1
aI6
aI5
aa(lp5728
I0
aI0
aI0
aI0
aI0
aI0
aI0
aI0
aI0
aI0
aI0
aI2
aI4
aI7
aa(lp5729
I0
aI0
aI0
aI0
aI0
aI0
aI0
aI0
aI0
aI1
aI2
aI5
aI4
aa(lp5730
I0
aI0
aI0
aI0
aI0
aI0
aI0
aI0
aI0
aI3
aI7
aa(lp5731
I0
aI0
aI0
aI0
aI0
aI0
aI0
aI0
aI0
aI0
aI0
aI0
aI0
aI0
aI0
aI0
aI3
aI2
aI2
aI1
aI4
aI9
aaa(lp5732
(lp5733
I4
aI0
aI2
aI3
aI1
aI5
aa(lp5734
I20
aI11
aI16
aI1
aI9
aI10
aI4
aI22
aI3
aI18
aI5
aI13
aI17
aI0
aI15
aI8
aI19
aI7
aI12
aI2
aI14
aI6
aI21
aa(lp5735
I11
aI8
aI4
aI6
aI16
aI10
aI9
aI15
aI1
aI14
aI13
aI2
aI3
aI5
aI12
aI7
aI0
aI17
aa(lp5736
I5
aI0
aI3
aI4
aI2
aI1
aI6
aa(lp5737
I13
aI6
aI7
aI12
aI10
aI0
aI1
aI5
aI8
aI9
aI3
aI2
aI11
aI4
aI14
aa(lp5738
I12
aI0
aI6
aI2
aI7
aI4
aI10
aI11
aI9
aI8
aI1
aI5
aI3
aI13
aa(lp5739
I31
aI0
aI28
aI16
aI12
aI1
aI19
aI21
aI17
aI8
aI27
aI9
aI33
aI5
aI23
aI22
aI7
aI26
aI11
aI30
aI14
aI2
aI20
aI13
aI18
aI24
aI3
aI15
aI6
aI25
aI10
aI29
aI4
aI32
aa(lp5740
I6
aI8
aI3
aI4
aI1
aI2
aI5
aI0
aI7
aa(lp5741
I0
aI3
aI2
aI5
aI1
aI4
aI6
aa(lp5742
I1
aI5
aI3
aI2
aI4
aI0
aI6
aa(lp5743
I0
aI8
aI14
aI3
aI7
aI13
aI10
aI11
aI1
aI4
aI5
aI6
aI2
aI9
aI12
aa(lp5744
I13
aI3
aI11
aI7
aI2
aI10
aI15
aI4
aI8
aI6
aI12
aI5
aI0
aI9
aI1
aI14
aa(lp5745
I0
aI10
aI7
aI1
aI11
aI2
aI9
aI3
aI14
aI13
aI4
aI5
aI12
aI8
aI6
aI15
aa(lp5746
I9
aI0
aI6
aI4
aI7
aI1
aI5
aI3
aI8
aI2
aI10
aa(lp5747
I17
aI6
aI0
aI11
aI16
aI10
aI7
aI3
aI14
aI2
aI12
aI9
aI5
aI19
aI15
aI8
aI4
aI1
aI13
aI18
aa(lp5748
I4
aI3
aI2
aI1
aI0
aI5
aa(lp5749
I12
aI1
aI13
aI2
aI8
aI5
aI0
aI11
aI10
aI9
aI6
aI3
aI7
aI4
aI14
aa(lp5750
I19
aI8
aI0
aI15
aI14
aI7
aI13
aI9
aI16
aI5
aI1
aI2
aI3
aI10
aI12
aI4
aI17
aI11
aI6
aI18
aI20
aa(lp5751
I6
aI3
aI2
aI9
aI8
aI0
aI5
aI4
aI7
aI1
aI10
aa(lp5752
I16
aI11
aI0
aI7
aI5
aI12
aI15
aI13
aI4
aI3
aI14
aI10
aI6
aI1
aI9
aI8
aI2
aI17
aa(lp5753
I13
aI11
aI1
aI8
aI10
aI2
aI5
aI7
aI4
aI12
aI9
aI0
aI6
aI3
aI14
aa(lp5754
I4
aI1
aI0
aI3
aI2
aI5
aa(lp5755
I11
aI8
aI0
aI13
aI9
aI7
aI5
aI3
aI1
aI14
aI6
aI2
aI4
aI10
aI12
aa(lp5756
I7
aI6
aI3
aI0
aI2
aI4
aI5
aI1
aI8
aa(lp5757
I8
aI4
aI5
aI0
aI3
aI1
aI7
aI2
aI6
aI9
aa(lp5758
I23
aI3
aI13
aI8
aI16
aI19
aI0
aI20
aI1
aI21
aI11
aI12
aI6
aI26
aI17
aI10
aI15
aI2
aI25
aI18
aI9
aI7
aI14
aI4
aI22
aI5
aI24
aa(lp5759
I6
aI0
aI5
aI2
aI4
aI3
aI1
aI7
aa(lp5760
I6
aI2
aI0
aI4
aI1
aI5
aI3
aI7
aa(lp5761
I5
aI4
aI0
aI2
aI3
aI1
aI6
aa(lp5762
I13
aI8
aI12
aI4
aI11
aI9
aI0
aI6
aI5
aI1
aI2
aI10
aI7
aI3
aI14
aa(lp5763
I9
aI5
aI0
aI11
aI6
aI3
aI8
aI1
aI4
aI2
aI7
aI10
aa(lp5764
I13
aI12
aI3
aI11
aI8
aI0
aI7
aI14
aI4
aI9
aI16
aI6
aI10
aI17
aI1
aI5
aI2
aI15
aa(lp5765
I26
aI28
aI5
aI27
aI30
aI11
aI8
aI16
aI0
aI23
aI25
aI21
aI1
aI9
aI3
aI18
aI32
aI7
aI19
aI13
aI15
aI6
aI31
aI20
aI10
aI12
aI22
aI17
aI2
aI24
aI14
aI4
aI29
aa(lp5766
I4
aI1
aI3
aI2
aI0
aI5
aa(lp5767
I8
aI0
aI7
aI6
aI3
aI4
aI1
aI5
aI2
aI9
aa(lp5768
I1
aI0
aI2
aa(lp5769
I14
aI6
aI7
aI0
aI10
aI5
aI12
aI1
aI8
aI3
aI13
aI2
aI9
aI11
aI4
aI15
aI16
aa(lp5770
I16
aI6
aI15
aI13
aI0
aI12
aI1
aI7
aI2
aI10
aI14
aI17
aI4
aI8
aI3
aI9
aI11
aI18
aI5
aI19
aa(lp5771
I31
aI0
aI17
aI9
aI33
aI29
aI3
aI21
aI24
aI20
aI11
aI35
aI28
aI25
aI8
aI14
aI5
aI1
aI2
aI23
aI16
aI19
aI10
aI12
aI4
aI18
aI26
aI6
aI34
aI15
aI30
aI27
aI7
aI22
aI13
aI32
aa(lp5772
I9
aI3
aI0
aI4
aI6
aI1
aI2
aI7
aI5
aI8
aI10
aa(lp5773
I4
aI5
aI2
aI6
aI0
aI3
aI1
aI7
aa(lp5774
I19
aI15
aI17
aI0
aI1
aI3
aI7
aI10
aI6
aI21
aI16
aI12
aI2
aI8
aI5
aI14
aI13
aI9
aI11
aI18
aI4
aI20
aa(lp5775
I16
aI5
aI19
aI10
aI1
aI6
aI13
aI3
aI18
aI8
aI11
aI15
aI12
aI0
aI7
aI2
aI9
aI14
aI4
aI17
aa(lp5776
I11
aI10
aI0
aI4
aI3
aI9
aI7
aI5
aI1
aI6
aI8
aI2
aI12
aa(lp5777
I9
aI7
aI5
aI0
aI3
aI1
aI8
aI6
aI4
aI2
aI10
aa(lp5778
I19
aI0
aI20
aI12
aI7
aI15
aI1
aI9
aI16
aI2
aI10
aI3
aI13
aI14
aI6
aI4
aI11
aI17
aI8
aI5
aI18
aa(lp5779
I18
aI17
aI20
aI9
aI0
aI8
aI14
aI6
aI19
aI12
aI16
aI1
aI7
aI13
aI10
aI2
aI11
aI15
aI5
aI4
aI3
aI21
aa(lp5780
I4
aI3
aI1
aI2
aI0
aI5
aa(lp5781
I9
aI6
aI5
aI0
aI8
aI4
aI1
aI2
aI3
aI7
aI10
aa(lp5782
I3
aI1
aI2
aI0
aI4
aa(lp5783
I13
aI0
aI1
aI8
aI11
aI10
aI2
aI6
aI7
aI12
aI9
aI3
aI5
aI4
aI14
aa(lp5784
I19
aI4
aI0
aI8
aI10
aI3
aI14
aI6
aI15
aI9
aI11
aI12
aI18
aI1
aI17
aI2
aI20
aI7
aI5
aI16
aI13
aI21
aa(lp5785
I5
aI0
aI7
aI6
aI4
aI1
aI3
aI2
aI8
aa(lp5786
I24
aI0
aI10
aI5
aI1
aI14
aI11
aI16
aI21
aI6
aI17
aI12
aI22
aI2
aI13
aI20
aI3
aI18
aI8
aI19
aI9
aI23
aI15
aI4
aI25
aI7
aI26
aa(lp5787
I10
aI6
aI9
aI7
aI0
aI8
aI11
aI3
aI1
aI5
aI4
aI2
aI12
aa(lp5788
I5
aI3
aI0
aI4
aI2
aI1
aI6
aa(lp5789
I0
aI6
aI3
aI1
aI5
aI7
aI4
aI2
aI8
aa(lp5790
I11
aI10
aI0
aI13
aI9
aI5
aI1
aI4
aI7
aI2
aI6
aI3
aI8
aI12
aa(lp5791
I6
aI4
aI1
aI3
aI2
aI0
aI5
aI7
aI8
aa(lp5792
I8
aI0
aI6
aI9
aI1
aI7
aI4
aI5
aI3
aI2
aI10
aa(lp5793
I2
aI10
aI8
aI3
aI0
aI6
aI11
aI4
aI9
aI1
aI7
aI5
aI12
aa(lp5794
I12
aI9
aI5
aI2
aI0
aI11
aI8
aI3
aI6
aI1
aI7
aI10
aI4
aI13
aa(lp5795
I11
aI3
aI8
aI10
aI9
aI0
aI6
aI1
aI7
aI2
aI5
aI4
aI12
aa(lp5796
I3
aI2
aI0
aI5
aI1
aI4
aa(lp5797
I5
aI3
aI0
aI2
aI4
aI1
aI6
aa(lp5798
I5
aI2
aI3
aI0
aI4
aI1
aI6
aa(lp5799
I8
aI4
aI3
aI6
aI0
aI2
aI7
aI5
aI1
aI9
aa(lp5800
I8
aI4
aI0
aI6
aI3
aI7
aI9
aI1
aI10
aI5
aI2
aI11
aa(lp5801
I27
aI18
aI4
aI14
aI28
aI22
aI20
aI5
aI26
aI21
aI8
aI0
aI16
aI17
aI13
aI1
aI2
aI15
aI30
aI3
aI12
aI23
aI6
aI11
aI7
aI24
aI29
aI25
aI19
aI9
aI10
aI31
aa(lp5802
I3
aI6
aI10
aI7
aI2
aI8
aI0
aI4
aI5
aI1
aI9
aa(lp5803
I12
aI8
aI5
aI10
aI11
aI0
aI9
aI3
aI14
aI6
aI4
aI2
aI7
aI1
aI13
aa(lp5804
I23
aI8
aI16
aI0
aI17
aI6
aI18
aI11
aI15
aI20
aI1
aI25
aI7
aI10
aI22
aI13
aI19
aI21
aI2
aI14
aI3
aI9
aI12
aI5
aI26
aI4
aI24
aa(lp5805
I0
aI4
aI2
aI5
aI3
aI1
aI6
aa(lp5806
I9
aI0
aI6
aI1
aI8
aI3
aI4
aI5
aI7
aI2
aI10
aa(lp5807
I9
aI3
aI11
aI7
aI4
aI1
aI0
aI5
aI12
aI8
aI6
aI2
aI10
aa(lp5808
I9
aI5
aI0
aI8
aI6
aI7
aI1
aI11
aI4
aI3
aI2
aI10
aa(lp5809
I11
aI7
aI0
aI1
aI2
aI3
aI9
aI4
aI5
aI10
aI12
aI6
aI8
aI13
aa(lp5810
I14
aI6
aI1
aI12
aI3
aI11
aI7
aI15
aI0
aI10
aI9
aI4
aI5
aI8
aI13
aI2
aI16
aa(lp5811
I5
aI2
aI0
aI4
aI3
aI1
aI6
aa(lp5812
I4
aI0
aI3
aI2
aI1
aI5
aa(lp5813
I2
aI10
aI5
aI16
aI14
aI18
aI9
aI0
aI6
aI8
aI4
aI17
aI12
aI7
aI1
aI11
aI13
aI3
aI15
aa(lp5814
I9
aI7
aI1
aI8
aI6
aI0
aI5
aI2
aI11
aI4
aI3
aI10
aa(lp5815
I5
aI0
aI3
aI2
aI4
aI1
aI6
aa(lp5816
I3
aI4
aI16
aI7
aI15
aI10
aI0
aI9
aI1
aI8
aI13
aI2
aI17
aI11
aI5
aI14
aI12
aI6
aI18
aa(lp5817
I7
aI8
aI6
aI3
aI0
aI4
aI5
aI2
aI1
aI9
aa(lp5818
I34
aI0
aI15
aI21
aI10
aI24
aI1
aI30
aI22
aI20
aI2
aI33
aI25
aI18
aI9
aI29
aI23
aI3
aI14
aI16
aI27
aI4
aI17
aI12
aI13
aI32
aI5
aI31
aI7
aI19
aI11
aI6
aI28
aI26
aI8
aI35
aa(lp5819
I13
aI0
aI8
aI1
aI7
aI10
aI2
aI3
aI12
aI4
aI9
aI6
aI11
aI5
aI14
aa(lp5820
I3
aI0
aI9
aI6
aI8
aI10
aI7
aI4
aI2
aI5
aI1
aI11
aa(lp5821
I7
aI3
aI0
aI9
aI6
aI4
aI2
aI1
aI5
aI8
aa(lp5822
I0
aI5
aI1
aI6
aI3
aI4
aI2
aI7
aa(lp5823
I8
aI10
aI7
aI4
aI0
aI3
aI1
aI6
aI5
aI2
aI9
aa(lp5824
I10
aI5
aI8
aI12
aI0
aI18
aI15
aI1
aI11
aI6
aI14
aI9
aI2
aI17
aI3
aI16
aI7
aI13
aI4
aI19
aa(lp5825
I9
aI0
aI4
aI6
aI1
aI5
aI8
aI3
aI7
aI2
aI10
aa(lp5826
I4
aI9
aI3
aI7
aI5
aI0
aI2
aI1
aI6
aI8
aa(lp5827
I2
aI0
aI1
aI3
aa(lp5828
I13
aI7
aI3
aI14
aI5
aI0
aI6
aI11
aI1
aI8
aI9
aI4
aI12
aI2
aI10
aI15
aa(lp5829
I9
aI12
aI2
aI3
aI4
aI7
aI11
aI0
aI5
aI10
aI6
aI8
aI1
aI13
aa(lp5830
I11
aI3
aI6
aI0
aI7
aI8
aI10
aI4
aI1
aI5
aI9
aI2
aI12
aa(lp5831
I9
aI6
aI7
aI8
aI5
aI0
aI3
aI2
aI4
aI1
aI10
aa(lp5832
I20
aI18
aI13
aI0
aI19
aI8
aI12
aI5
aI16
aI2
aI9
aI10
aI4
aI17
aI14
aI15
aI7
aI1
aI6
aI11
aI3
aI21
aaa(lp5833
(lp5834
Vliked
p5835
aVbody
p5836
aVthe
p5837
aValuminum
p5838
aVI
aV.
aa(lp5839
Vsub-par
p5840
aVquality
p5841
aVexpected
p5842
aVeverything
p5843
aVperformance
p5844
aVit
p5845
aVApple
p5846
aVwould
p5847
aVwhat
p5848
aVto
p5849
aVthe
p5850
aVthe
p5851
aVhave
p5852
aVhas
p5853
aVfrom
p5854
aVfrom
p5855
aVbuild
p5856
aVbeen
p5857
aVabout
p5858
aVI
aVFrom
p5859
aV.
aV,
aa(lp5860
Vwere
p5861
aVgood
p5862
aVstops
p5863
aVworking
p5864
aVeverything
p5865
aVout
p5866
aVelse
p5867
aVno
p5868
aVmuch
p5869
aVcomputer
p5870
aVthe
p5871
aVpretty
p5872
aVof
p5873
aVjust
p5874
aVit
p5875
aVis
p5876
aVabout
p5877
aV.
aa(lp5878
Vbought
p5879
aVwife
p5880
aVmy
p5881
aVit
p5882
aVfor
p5883
aVOriginally
p5884
aV.
aa(lp5885
Vcomputer
p5886
aVcosting
p5887
aVbucks
p5888
aVthousand
p5889
aVtax
p5890
aVless
p5891
aVwas
p5892
aVtruly
p5893
aVthan
p5894
aVone
p5895
aVgreat
p5896
aVbefore
p5897
aVa
aVIt
p5898
aV.
aa(lp5899
Vbought
p5900
aVlove
p5901
aVlaptop
p5902
aVit
p5903
aVSaturday
p5904
aVwith
p5905
aVthis
p5906
aVon
p5907
aVin
p5908
aVcompletely
p5909
aVand
p5910
aVam
p5911
aVI
aV!
aa(lp5912
Vasked
p5913
aVdetermine
p5914
aVtold
p5915
aVway
p5916
aVhappen
p5917
aVdents
p5918
aVtype
p5919
aVsigns
p5920
aVare
p5921
aVscratches
p5922
aVdamage
p5923
aVdamage
p5924
aVwould
p5925
aVwas
p5926
aVwas
p5927
aVthis
p5928
aVthey
p5929
aVthere
p5930
aVthe
p5931
aVthat
p5932
aVthat
p5933
aVsince
p5934
aVother
p5935
aVor
p5936
aVonly
p5937
aVof
p5938
aVof
p5939
aVno
p5940
aVhow
p5941
aVcould
p5942
aVand
p5943
aVI
aV.
aV,
aa(lp5944
Vproblem
p5945
aVwarranty
p5946
aVwas
p5947
aVthe
p5948
aVextended
p5949
aVa
aVAlso
p5950
aV.
aV,
aa(lp5951
VBoots
p5952
aVruns
p5953
aVfast
p5954
aVup
p5955
aVgreat
p5956
aVand
p5957
aV!
aa(lp5958
Vbeautiful
p5959
aVLightweight
p5960
aVscreen
p5961
aVthe
p5962
aVis
p5963
aVand
p5964
aV!
aa(lp5965
VBuy
p5966
aVpromise
p5967
aVregret
p5968
aVlove
p5969
aVyou
p5970
aVwo
p5971
aVn't
p5972
aVit
p5973
aVit
p5974
aVit
p5975
aVand
p5976
aVI
aV.
aV,
aV,
aa(lp5977
Vlaptop
p5978
aVyou
p5979
aVlike
p5980
aVyou
p5981
aVthis
p5982
aVthe
p5983
aVnot
p5984
aVn't
p5985
aVmight
p5986
aVfor
p5987
aVfingerprints
p5988
aVdo
p5989
aVbe
p5990
aVIf
p5991
aV.
aV,
aa(lp5992
VCall
p5993
aV,
aVemail
p5994
aVform
p5995
aVit
p5996
aVback
p5997
aVus
p5998
aVsupport
p5999
aVto
p6000
aVthe
p6001
aVtech
p6002
aVstandard
p6003
aVin
p6004
aVfax
p6005
aVand
p6006
aV.
aa(lp6007
Vdid
p6008
aVshare
p6009
aVam
p6010
aVunhappy
p6011
aVHP
p6012
aVhow
p6013
aVcontact
p6014
aVand
p6015
aVI
aVI
aV.
aa(lp6016
Varrived
p6017
aVworks
p6018
aVsealed
p6019
aVpacking
p6020
aVfunctions
p6021
aVbox
p6022
aVMacbook
p6023
aVtwin
p6024
aVthe
p6025
aVthe
p6026
aVnice
p6027
aVin
p6028
aVin
p6029
aVgreat
p6030
aVand
p6031
aVall
p6032
aVa
aVThe
p6033
aV.
aV,
aa(lp6034
VMacBook
p6035
aVsecond
p6036
aVmy
p6037
aVis
p6038
aVThis
p6039
aV.
aa(lp6040
Vwent
p6041
aVservice
p6042
aVreceived
p6043
aVcall
p6044
aVduty
p6045
aVToshiba
p6046
aVthe
p6047
aVof
p6048
aVfrom
p6049
aVbeyond
p6050
aVand
p6051
aVabove
p6052
aVThe
p6053
aVI
aV.
aa(lp6054
Vrecommend
p6055
aVprobably
p6056
aVbecause
p6057
aVthats
p6058
aVthing
p6059
aVspeed
p6060
aVcare
p6061
aVbecause
p6062
aVwould
p6063
aVthe
p6064
aVthe
p6065
aVreally
p6066
aVonly
p6067
aVof
p6068
aVjust
p6069
aVit
p6070
aVinternet
p6071
aVi
aVabout
p6072
aVI
aV.
aa(lp6073
VLaptop
p6074
aVPro
p6075
aVmy
p6076
aVis
p6077
aVfirst
p6078
aVand
p6079
aVThis
p6080
aVMacBook
p6081
aVApple
p6082
aV3rd
p6083
aV.
aa(lp6084
Vhad
p6085
aVsay
p6086
aVsatisfied
p6087
aVnow
p6088
aVmonths
p6089
aVlaptop
p6090
aVwould
p6091
aVthis
p6092
aVpretty
p6093
aVim
p6094
aVi
aVhave
p6095
aVfor
p6096
aVfew
p6097
aVand
p6098
aVa
aVI
aV.
aa(lp6099
Vtake
p6100
aVpart
p6101
aVrelationship
p6102
aVlong
p6103
aVlaptop
p6104
aVwith
p6105
aVvery
p6106
aVthis
p6107
aVof
p6108
aVn't
p6109
aVmy
p6110
aVlove
p6111
aVdoes
p6112
aVThe
p6113
aV.
aa(lp6114
Vshows
p6115
aVscreen
p6116
aVcolors
p6117
aVgreat
p6118
aVThe
p6119
aV.
aa(lp6120
Vok
p6121
aVgood
p6122
aVMacs
p6123
aVthat
p6124
aVor
p6125
aVn't
p6126
aVbut
p6127
aVare
p6128
aVare
p6129
aVHPs
p6130
aVFantastic
p6131
aVDells
p6132
aV.
aV,
aV,
aa(lp6133
Vsatisfied
p6134
aVtoshie
p6135
aVwith
p6136
aVtotally
p6137
aVmy
p6138
aVlittle
p6139
aVam
p6140
aVI
aV!
aa(lp6141
Vreached
p6142
aVlimit
p6143
aVbroke
p6144
aVmy
p6145
aVhad
p6146
aVfinally
p6147
aVdown
p6148
aVand
p6149
aVI
aV.
aa(lp6150
Vdropping
p6151
aVfast
p6152
aVsupport
p6153
aVopinion
p6154
aVcaused
p6155
aVplunge
p6156
aVmarket
p6157
aVmachine
p6158
aVSony
p6159
aVthis
p6160
aVtheir
p6161
aVthe
p6162
aVstock
p6163
aVof
p6164
aVjust
p6165
aVhorrible
p6166
aVhas
p6167
aVgiven
p6168
aVbut
p6169
aVbeen
p6170
aVas
p6171
aVas
p6172
aVanother
p6173
aVMy
p6174
aV.
aV,
aV,
aa(lp6175
Vwaited
p6176
aVlaptop
p6177
aVwaited
p6178
aVno
p6179
aVand
p6180
aVand
p6181
aVI
aV.
aa(lp6182
Vfalling
p6183
aVinternally
p6184
aVis
p6185
aVexternally
p6186
aVapart
p6187
aVand
p6188
aVEverything
p6189
aV.
aa(lp6190
Vliked
p6191
aVscreen
p6192
aVthe
p6193
aVglass
p6194
aValso
p6195
aVI
aV.
aa(lp6196
Vsweet
p6197
aVwant
p6198
aVgaming
p6199
aVlaptop
p6200
aVcard
p6201
aVyou
p6202
aVwhen
p6203
aVthe
p6204
aVswitchable
p6205
aVpretty
p6206
aVon
p6207
aVis
p6208
aVgraphic
p6209
aVThe
p6210
aV.
aa(lp6211
Vshiny
p6212
aVsee
p6213
aVfingerprints
p6214
aVyou
p6215
aVthe
p6216
aVsuper
p6217
aVso
p6218
aVeasily
p6219
aVcan
p6220
aVIt
p6221
aV.
aV,
aa(lp6222
Vdecreased
p6223
aVthrilled
p6224
aVthat
p6225
aVlife
p6226
aVbought
p6227
aVwith
p6228
aVso
p6229
aVsince
p6230
aVnot
p6231
aVit
p6232
aVi
aVhas
p6233
aVbattery
p6234
aVThe
p6235
aVI
aV.
aV,
aV'm
p6236
aa(lp6237
Vdo
p6238
aVtried
p6239
aVoffer
p6240
aVcharge
p6241
aVsupport
p6242
aVcalled
p6243
aVcall
p6244
aV35
p6245
aVwould
p6246
aVto
p6247
aVthough
p6248
aVthey
p6249
aVthey
p6250
aVthe
p6251
aVtechnical
p6252
aVphone
p6253
aVnot
p6254
aVn't
p6255
aVme
p6256
aVfor
p6257
aVeven
p6258
aVeven
p6259
aVdid
p6260
aVanything
p6261
aVany
p6262
aVand
p6263
aVWhen
p6264
aVToshiba
p6265
aVI
aV.
aV,
aV,
aV$
aa(lp6266
Vheavy
p6267
aVHP
p6268
aVvery
p6269
aVis
p6270
aVMy
p6271
aV.
aa(lp6272
Vprice
p6273
aVmet
p6274
aVneeds
p6275
aVmore
p6276
aVthan
p6277
aVmy
p6278
aVfeatures
p6279
aVand
p6280
aVThe
p6281
aV.
aa(lp6282
Vmistake
p6283
aVbig
p6284
aV!
aa(lp6285
Vgreat
p6286
aVaccepted
p6287
aVgave
p6288
aVreturn
p6289
aVmodel
p6290
aValways
p6291
aVBuy
p6292
aVwas
p6293
aVthe
p6294
aVme
p6295
aVas
p6296
aVanother
p6297
aVand
p6298
aVand
p6299
aVBest
p6300
aV1764
p6301
aV.
aa(lp6302
Vbuy
p6303
aVrefused
p6304
aVtake
p6305
aVhad
p6306
aVi
aVhour
p6307
aVdell
p6308
aVto
p6309
aVonly
p6310
aVit
p6311
aVit
p6312
aVfor
p6313
aVboth
p6314
aVbest
p6315
aVback
p6316
aVand
p6317
aVand
p6318
aVafter
p6319
aV1
aV...
p6320
aa(lp6321
Vburned
p6322
aVsecond
p6323
aVputting
p6324
aVlifting
p6325
aVclean
p6326
aV5
aVtable
p6327
aVplace
p6328
aVless
p6329
aVleg
p6330
aVlap
p6331
aVdesk
p6332
aVto
p6333
aVthere
p6334
aVthan
p6335
aVso
p6336
aVon
p6337
aVmy
p6338
aVmy
p6339
aVmy
p6340
aVmy
p6341
aVit
p6342
aVit
p6343
aVit
p6344
aVfrom
p6345
aVfor
p6346
aVcoffee
p6347
aVcan
p6348
aVand
p6349
aVafter
p6350
aVI
aVI
aV.
aV,
aV,
aV,
aa(lp6351
Vbuy
p6352
aVtop
p6353
aVover
p6354
aVwould
p6355
aVthis
p6356
aVover
p6357
aVlap
p6358
aVand
p6359
aVagain
p6360
aVI
aV!
aa(lp6361
Vhard
p6362
aVpush
p6363
aVbuttons
p6364
aVto
p6365
aVthe
p6366
aVmouse
p6367
aVare
p6368
aV.
aa(lp6369
Vget
p6370
aVwork
p6371
aVfight
p6372
aVdone
p6373
aVlaptop
p6374
aVit
p6375
aVMAC
p6376
aVwith
p6377
aVwith
p6378
aVtired
p6379
aVthis
p6380
aVold
p6381
aVnot
p6382
aVmy
p6383
aVlike
p6384
aVcan
p6385
aVand
p6386
aVactually
p6387
aVPC
p6388
aVI
aV.
aV,
aa(lp6389
Vlaptop
p6390
aVwanting
p6391
aVsit
p6392
aVmobile
p6393
aVdesk
p6394
aVyou
p6395
aVto
p6396
aVto
p6397
aVthis
p6398
aVon
p6399
aVnot
p6400
aVis
p6401
aVgood
p6402
aVbe
p6403
aVa
aVa
aVIf
p6404
aV.
aV,
aV're
p6405
aa(lp6406
Vtravel
p6407
aVgives
p6408
aVproblems
p6409
aVit
p6410
aVwith
p6411
aVnever
p6412
aVme
p6413
aVit
p6414
aVany
p6415
aVand
p6416
aValso
p6417
aVI
aV.
aa(lp6418
Vwaste
p6419
aVtime
p6420
aVthis
p6421
aVyour
p6422
aVon
p6423
aVn't
p6424
aVmoney
p6425
aVdo
p6426
aVand
p6427
aVJust
p6428
aV.
aa(lp6429
VBeware
p6430
aVsend
p6431
aVmaking
p6432
aVfeel
p6433
aVknow
p6434
aVis
p6435
aVthey
p6436
aVstaff
p6437
aVcomputer
p6438
aVyou
p6439
aVyou
p6440
aVwhat
p6441
aVtheir
p6442
aVthat
p6443
aVonly
p6444
aVcould
p6445
aVback
p6446
aVa
aV.
aV-LRB-
p6447
aV,
aa(lp6448
Vpaying
p6449
aVproduct
p6450
aVlast
p6451
aVyears
p6452
aVthree
p6453
aVleast
p6454
aVfinancing
p6455
aVwhich
p6456
aVthe
p6457
aVstill
p6458
aVn't
p6459
aVme
p6460
aVfor
p6461
aVdid
p6462
aVbloody
p6463
aVat
p6464
aVa
aVI
aVAnd
p6465
aV,
aV'm
p6466
aV!
aa(lp6467
Vissue
p6468
aVthe
p6469
aVmain
p6470
aVbeing
p6471
aVGames
p6472
aV.
aa(lp6473
Vcheap
p6474
aVwont
p6475
aVregret
p6476
aVbuying
p6477
aVyou
p6478
aVreally
p6479
aVits
p6480
aVit
p6481
aVand
p6482
aVand
p6483
aV.
aa(lp6484
Vrated
p6485
aVwas
p6486
aVover
p6487
aVIt
p6488
aV!
aa(lp6489
Vdont
p6490
aVunderstand
p6491
aVthink
p6492
aVproduct
p6493
aVpurchasing
p6494
aVworth
p6495
aVthis
p6496
aVis
p6497
aVhow
p6498
aVgreat
p6499
aVcan
p6500
aVanyone
p6501
aVa
aVI
aV.
aa(lp6502
Vhas
p6503
aVband
p6504
aVuses
p6505
aVMac
p6506
aVsister
p6507
aVrecord
p6508
aVme
p6509
aVto
p6510
aVthe
p6511
aVshe
p6512
aVsame
p6513
aVis
p6514
aVin
p6515
aVedit
p6516
aVas
p6517
aVand
p6518
aVand
p6519
aVand
p6520
aVa
aVMy
p6521
aVGarageBand
p6522
aV.
aa(lp6523
VThoughts
p6524
aVpurchase
p6525
aVproduct
p6526
aVthis
p6527
aVnot
p6528
aVOther
p6529
aVDo
p6530
aV:
aV.
aa(lp6531
Vlooks
p6532
aV:D
p6533
aVlaptop
p6534
aVstudents
p6535
aVcaring
p6536
aVsexyy
p6537
aVpro
p6538
aVprice
p6539
aVcollege
p6540
aVyou
p6541
aVvery
p6542
aVthe
p6543
aVthe
p6544
aVspecially
p6545
aVreally
p6546
aVnot
p6547
aVmac
p6548
aVis
p6549
aVin
p6550
aVif
p6551
aVfor
p6552
aVbook
p6553
aVbest
p6554
aVare
p6555
aVand
p6556
aVabout
p6557
aV.
aa(lp6558
Vlaptop
p6559
aVrecommend
p6560
aVanyone
p6561
aVwould
p6562
aVto
p6563
aVit
p6564
aVis
p6565
aVgreat
p6566
aVand
p6567
aVa
aVThis
p6568
aVI
aV.
aa(lp6569
Vhave
p6570
aVproduct
p6571
aVsuperior
p6572
aVdefinitely
p6573
aVa
aVThey
p6574
aV!
aa(lp6575
VBought
p6576
aVuse
p6577
aVclasses
p6578
aVto
p6579
aVoline
p6580
aVmostly
p6581
aVit
p6582
aVfor
p6583
aV.
aa(lp6584
Vwonderful
p6585
aVdangerous
p6586
aVcomes
p6587
aVemitting
p6588
aVwhen
p6589
aVvery
p6590
aVto
p6591
aVit
p6592
aVheat
p6593
aVbut
p6594
aVare
p6595
aVThey
p6596
aV.
aV,
aa(lp6597
VDell
p6598
aVpurchases
p6599
aVwith
p6600
aVwere
p6601
aVprevious
p6602
aVand
p6603
aVMy
p6604
aVHP
p6605
aV.
aa(lp6606
Vpurchased
p6607
aVright
p6608
aVgraduation
p6609
aVschool
p6610
aVmy
p6611
aVhigh
p6612
aVan
p6613
aVafter
p6614
aVI
aVHP
p6615
aV.
aa(lp6616
Vbought
p6617
aVnov
p6618
aVMe
p6619
aVboyfriend
p6620
aVNV78
p6621
aV09
p6622
aVthe
p6623
aVof
p6624
aVmy
p6625
aVin
p6626
aVand
p6627
aVGateway
p6628
aV.
aa(lp6629
Vfriendly
p6630
aVfigure
p6631
aVuser
p6632
aVhard
p6633
aVall
p6634
aVvery
p6635
aVto
p6636
aVout
p6637
aVnot
p6638
aVis
p6639
aVat
p6640
aVand
p6641
aVIt
p6642
aV.
aa(lp6643
Vinfluence
p6644
aVmade
p6645
aVpurchase
p6646
aVprice
p6647
aVlaptop
p6648
aVthis
p6649
aVthat
p6650
aVme
p6651
aVis
p6652
aVdriving
p6653
aVanother
p6654
aVThe
p6655
aV.
aa(lp6656
Vloaded
p6657
aVgood
p6658
aVfully
p6659
aVCame
p6660
aV.
aV-
aa(lp6661
Vmeant
p6662
aVPORTABLE
p6663
aVto
p6664
aVis
p6665
aVbe
p6666
aVIt
p6667
aV.
aa(lp6668
Vdelivered
p6669
aVpromised
p6670
aVcomputer
p6671
aVwas
p6672
aVas
p6673
aVThe
p6674
aV.
aa(lp6675
Vopposite
p6676
aVdesign
p6677
aVto
p6678
aVthe
p6679
aVis
p6680
aVergonomic
p6681
aVcomplete
p6682
aVan
p6683
aVThis
p6684
aV.
aa(lp6685
Vlike
p6686
aVhr
p6687
aVlife
p6688
aVleast
p6689
aVwould
p6690
aVbattery
p6691
aVat
p6692
aVa
aVI
aV4
aV.
aV.
aa(lp6693
Vis
p6694
aVare
p6695
aVprograms
p6696
aVwant
p6697
aVthing
p6698
aVlike
p6699
aVable
p6700
aVrun
p6701
aVmac
p6702
aVable
p6703
aVto
p6704
aVto
p6705
aVto
p6706
aVthere
p6707
aVthat
p6708
aVthat
p6709
aVthat
p6710
aVsometimes
p6711
aVonly
p6712
aVnot
p6713
aVn't
p6714
aVmy
p6715
aVdo
p6716
aVbe
p6717
aVand
p6718
aVam
p6719
aVabout
p6720
aVThe
p6721
aVI
aVI
aVI
aV.
aa(lp6722
Vhaving
p6723
aVproblem
p6724
aVpeople
p6725
aVLooking
p6726
aVthe
p6727
aVsame
p6728
aVonline
p6729
aVmany
p6730
aVare
p6731
aV.
aV,
aa(lp6732
Vissue
p6733
aVmeantioned
p6734
aVothers
p6735
aVme
p6736
aVsome
p6737
aVnot
p6738
aVlike
p6739
aVhave
p6740
aVhas
p6741
aVfor
p6742
aVbeen
p6743
aVa
aVWireless
p6744
aV.
aV,
aa(lp6745
Vdie
p6746
aVlife
p6747
aVprograms
p6748
aVrun
p6749
aVknowlede
p6750
aVuser
p6751
aVbecause
p6752
aVas
p6753
aVNotebooks
p6754
aVwithout
p6755
aVwell
p6756
aVtheir
p6757
aVthe
p6758
aVthe
p6759
aVthat
p6760
aVshort
p6761
aVquickly
p6762
aVout
p6763
aVof
p6764
aVmany
p6765
aVbattery
p6766
aVbackground
p6767
aVas
p6768
aVMacBook
p6769
aV.
aV,
aV's
p6770
aa(lp6771
VAll
p6772
aVprice
p6773
aVsuch
p6774
aVgreat
p6775
aVfor
p6776
aVa
aV.
aa(lp6777
Vhas
p6778
aVspeed
p6779
aVspace
p6780
aVplenty
p6781
aVof
p6782
aVhard
p6783
aVgood
p6784
aVdrive
p6785
aVand
p6786
aVIt
p6787
aV.
aa(lp6788
Vspent
p6789
aVmoney
p6790
aVdeal
p6791
aVthough
p6792
aVthe
p6793
aVit
p6794
aVgreat
p6795
aVfor
p6796
aVa
aVOverall
p6797
aV.
aV,
aV's
p6798
aa(lp6799
Vpricey
p6800
aVwell
p6801
aVit
p6802
aVworth
p6803
aVwell
p6804
aVlittle
p6805
aVit
p6806
aVis
p6807
aVbut
p6808
aVA
aV.
aV,
aa(lp6809
Vopinion
p6810
aVit
p6811
aVwas
p6812
aVnot
p6813
aVuser
p6814
aVfriendly
p6815
aVexpected
p6816
aVmy
p6817
aVeither
p6818
aVas
p6819
aVas
p6820
aVIn
p6821
aVI
aV.
aa(lp6822
Vworld
p6823
aVservice
p6824
aVbother
p6825
aVdell
p6826
aVas
p6827
aVwell
p6828
aVtechnical
p6829
aVso
p6830
aVnot
p6831
aVmight
p6832
aVit
p6833
aVis
p6834
aVfor
p6835
aVeven
p6836
aVThe
p6837
aV3rd
p6838
aV.
aa(lp6839
Vdefinelty
p6840
aVmove
p6841
aVwas
p6842
aVsmart
p6843
aVa
aVIt
p6844
aV.
aa(lp6845
Vspeed
p6846
aVdata
p6847
aVprocessing
p6848
aVfor
p6849
aVExcellent
p6850
aV.
aa(lp6851
Vdissatisfied
p6852
aVHP
p6853
aVAll
p6854
aVwhole
p6855
aVlaptop
p6856
aVall
p6857
aVwith
p6858
aVwith
p6859
aVthis
p6860
aVincredibly
p6861
aVin
p6862
aVas
p6863
aVand
p6864
aVa
aVI
aV.
aV,
aV,
aV'm
p6865
aa(lp6866
Vfix
p6867
aVupdates
p6868
aVissue
p6869
aVfrustrating
p6870
aVvery
p6871
aVthe
p6872
aVn't
p6873
aVdriver
p6874
aVdo
p6875
aVThe
p6876
aV.
aV,
aa(lp6877
Vdoesnt
p6878
aVdamn
p6879
aVworth
p6880
aVwork
p6881
aVa
aVIt
p6882
aV.
aa(lp6883
Vuseful
p6884
aVchatting
p6885
aVtechs
p6886
aVThe
p6887
aVbuilt
p6888
aVbuildings
p6889
aVcampus
p6890
aVcamera
p6891
aVwith
p6892
aVwhen
p6893
aVvery
p6894
aVremote
p6895
aVour
p6896
aVother
p6897
aVon
p6898
aVis
p6899
aVin
p6900
aVin
p6901
aV.
aa(lp6902
Vproduct
p6903
aVprice
p6904
aVgreat
p6905
aVgreat
p6906
aVfor
p6907
aVa
aVa
aVIt
p6908
aV's
p6909
aV!
aa(lp6910
Vsee
p6911
aVdifferent
p6912
aVhave
p6913
aVcomes
p6914
aVsoftware
p6915
aVneed
p6916
aVhas
p6917
aVmost
p6918
aVupdates
p6919
aVtag
p6920
aVpro
p6921
aVit
p6922
aVyou
p6923
aVwould
p6924
aVwith
p6925
aVthe
p6926
aVthe
p6927
aVthat
p6928
aVprice
p6929
aVof
p6930
aVmay
p6931
aVmacbook
p6932
aVit
p6933
aVit
p6934
aVis
p6935
aVhuge
p6936
aVfuture
p6937
aVfull
p6938
aVfree
p6939
aVbut
p6940
aVbecause
p6941
aVand
p6942
aVactually
p6943
aVa
aVBut
p6944
aV.
aa(lp6945
Vwanted
p6946
aVcharge
p6947
aVeverything
p6948
aVeverytime
p6949
aVcalled
p6950
aVproblem
p6951
aVwith
p6952
aVus
p6953
aVto
p6954
aVthem
p6955
aVfor
p6956
aVa
aVI
aVDell
p6957
aV.
aa(lp6958
VHAS
p6959
aVIT
p6960
aVWE
p6961
aVTHIS
p6962
aVSINCE
p6963
aVPURCHASED
p6964
aVNOTHING
p6965
aVHEADACHE
p6966
aVBUT
p6967
aVBEEN
p6968
aVA
aV.
aa(lp6969
Vfancy
p6970
aVexpensive
p6971
aVsuper
p6972
aVsuper
p6973
aVnot
p6974
aVeither
p6975
aVbut
p6976
aVNot
p6977
aV.
aV,
aa(lp6978
VKeyboard
p6979
aVsized
p6980
aVuse
p6981
aVwasy
p6982
aVto
p6983
aVgood
p6984
aVand
p6985
aV.
aa(lp6986
Vprodcut
p6987
aVhandle
p6988
aVneeds
p6989
aVto
p6990
aVgreat
p6991
aVcomputing
p6992
aVbasic
p6993
aVa
aVIt
p6994
aV.
aV's
p6995
aa(lp6996
Vgood
p6997
aVgoes
p6998
aVway
p6999
aVthought
p7000
aVrun
p7001
aVlaptop
p7002
aVfast
p7003
aVwould
p7004
aVwas
p7005
aVthe
p7006
aVthe
p7007
aVreally
p7008
aVreally
p7009
aVof
p7010
aVjust
p7011
aVit
p7012
aVit
p7013
aVi
aVand
p7014
aV.
aa(lp7015
Vglad
p7016
aVhas
p7017
aVit
p7018
aVfeatures
p7019
aVthat
p7020
aVsuch
p7021
aVit
p7022
aVin
p7023
aVgreat
p7024
aVIm
p7025
aV.
aa(lp7026
Vtoy
p7027
aVhave
p7028
aVto
p7029
aVjust
p7030
aVit
p7031
aVgreat
p7032
aVaround
p7033
aVa
aV.
aV's
p7034
aa(lp7035
Vwifi
p7036
aVtoo
p7037
aVGreat
p7038
aV.
aa(lp7039
Vhave
p7040
aVpower
p7041
aVrestart
p7042
aVhappened
p7043
aVcomputer
p7044
aVwould
p7045
aVto
p7046
aVthis
p7047
aVoff
p7048
aVmy
p7049
aVit
p7050
aVcompletely
p7051
aVand
p7052
aVWhen
p7053
aVI
aV.
aa(lp7054
Vproduct
p7055
aVpurchased
p7056
aVmini
p7057
aVwas
p7058
aVthe
p7059
aVthat
p7060
aVhad
p7061
aVfirst
p7062
aVever
p7063
aVThe
p7064
aVI
aVDell
p7065
aVDell
p7066
aV.
aa(lp7067
Vgone
p7068
aVfriend
p7069
aVadversary
p7070
aVMac
p7071
aVtrusted
p7072
aVto
p7073
aVhas
p7074
aVfrom
p7075
aVbeing
p7076
aVan
p7077
aVa
aVMy
p7078
aV.
aa(lp7079
Vuser
p7080
aV90s
p7081
aVthe
p7082
aVsince
p7083
aVmid
p7084
aVmac
p7085
aVhave
p7086
aVbeen
p7087
aVa
aVI
aV.
aa(lp7088
Vused
p7089
aVsatisfied
p7090
aVjumped
p7091
aVperformance
p7092
aVlaptop
p7093
aVPC
p7094
aVwith
p7095
aVvery
p7096
aVtower
p7097
aVto
p7098
aVthe
p7099
aVits
p7100
aVhome
p7101
aVhave
p7102
aVhave
p7103
aVbeen
p7104
aVand
p7105
aVand
p7106
aValways
p7107
aVa
aVI
aV.
aaa(lp7108
(lp7109
(lp7110
a(lp7111
I0
aa(lp7112
I1
aa(lp7113
I1
aa(lp7114
I0
aa(lp7115
I0
aaa(lp7116
(lp7117
a(lp7118
I0
aa(lp7119
I0
aa(lp7120
I0
aa(lp7121
I1
aa(lp7122
I3
aa(lp7123
I2
aa(lp7124
I2
aa(lp7125
I2
aa(lp7126
I4
aa(lp7127
I4
aa(lp7128
I1
aa(lp7129
I2
aa(lp7130
I0
aa(lp7131
I6
aa(lp7132
I2
aa(lp7133
I1
aa(lp7134
I0
aa(lp7135
I5
aa(lp7136
I2
aa(lp7137
I1
aa(lp7138
I0
aa(lp7139
I0
aaa(lp7140
(lp7141
a(lp7142
I0
aa(lp7143
I1
aa(lp7144
I2
aa(lp7145
I1
aa(lp7146
I3
aa(lp7147
I4
aa(lp7148
I5
aa(lp7149
I4
aa(lp7150
I6
aa(lp7151
I9
aa(lp7152
I8
aa(lp7153
I7
aa(lp7154
I2
aa(lp7155
I2
aa(lp7156
I1
aa(lp7157
I9
aa(lp7158
I0
aaa(lp7159
(lp7160
a(lp7161
I0
aa(lp7162
I1
aa(lp7163
I0
aa(lp7164
I1
aa(lp7165
I0
aa(lp7166
I0
aaa(lp7167
(lp7168
a(lp7169
I0
aa(lp7170
I1
aa(lp7171
I2
aa(lp7172
I1
aa(lp7173
I3
aa(lp7174
I0
aa(lp7175
I0
aa(lp7176
I5
aa(lp7177
I3
aa(lp7178
I0
aa(lp7179
I4
aa(lp7180
I0
aa(lp7181
I0
aa(lp7182
I0
aaa(lp7183
(lp7184
a(lp7185
I0
aa(lp7186
I0
aa(lp7187
I1
aa(lp7188
I0
aa(lp7189
I3
aa(lp7190
I2
aa(lp7191
I4
aa(lp7192
I1
aa(lp7193
I1
aa(lp7194
I0
aa(lp7195
I1
aa(lp7196
I0
aa(lp7197
I0
aaa(lp7198
(lp7199
a(lp7200
I0
aa(lp7201
I1
aa(lp7202
I2
aa(lp7203
I3
aa(lp7204
I2
aa(lp7205
I4
aa(lp7206
I5
aa(lp7207
I2
aa(lp7208
I8
aa(lp7209
I6
aa(lp7210
I7
aa(lp7211
I1
aa(lp7212
I3
aa(lp7213
I2
aa(lp7214
I6
aa(lp7215
I1
aa(lp7216
I8
aa(lp7217
I3
aa(lp7218
I2
aa(lp7219
I3
aa(lp7220
I8
aa(lp7221
I7
aa(lp7222
I5
aa(lp7223
I3
aa(lp7224
I10
aa(lp7225
I11
aa(lp7226
I9
aa(lp7227
I1
aa(lp7228
I4
aa(lp7229
I5
aa(lp7230
I0
aa(lp7231
I0
aa(lp7232
I2
aaa(lp7233
(lp7234
a(lp7235
I0
aa(lp7236
I0
aa(lp7237
I1
aa(lp7238
I1
aa(lp7239
I0
aa(lp7240
I0
aa(lp7241
I0
aa(lp7242
I0
aaa(lp7243
(lp7244
a(lp7245
I0
aa(lp7246
I0
aa(lp7247
I2
aa(lp7248
I1
aa(lp7249
I0
aa(lp7250
I0
aaa(lp7251
(lp7252
a(lp7253
I0
aa(lp7254
I1
aa(lp7255
I2
aa(lp7256
I0
aa(lp7257
I1
aa(lp7258
I0
aaa(lp7259
(lp7260
a(lp7261
I0
aa(lp7262
I1
aa(lp7263
I0
aa(lp7264
I2
aa(lp7265
I2
aa(lp7266
I2
aa(lp7267
I3
aa(lp7268
I0
aa(lp7269
I2
aa(lp7270
I0
aa(lp7271
I1
aa(lp7272
I0
aa(lp7273
I0
aa(lp7274
I0
aaa(lp7275
(lp7276
a(lp7277
I0
aa(lp7278
I0
aa(lp7279
I2
aa(lp7280
I0
aa(lp7281
I0
aa(lp7282
I0
aa(lp7283
I2
aa(lp7284
I0
aa(lp7285
I1
aa(lp7286
I2
aa(lp7287
I2
aa(lp7288
I0
aa(lp7289
I2
aa(lp7290
I0
aa(lp7291
I0
aaa(lp7292
(lp7293
a(lp7294
I0
aa(lp7295
I1
aa(lp7296
I2
aa(lp7297
I3
aa(lp7298
I4
aa(lp7299
I5
aa(lp7300
I0
aa(lp7301
I6
aa(lp7302
I3
aa(lp7303
I7
aa(lp7304
I2
aa(lp7305
I6
aa(lp7306
I3
aa(lp7307
I3
aa(lp7308
I2
aaa(lp7309
(lp7310
a(lp7311
I0
aa(lp7312
I1
aa(lp7313
I2
aa(lp7314
I0
aa(lp7315
I3
aa(lp7316
I4
aa(lp7317
I0
aa(lp7318
I2
aa(lp7319
I0
aa(lp7320
I0
aaa(lp7321
(lp7322
a(lp7323
I0
aa(lp7324
I0
aa(lp7325
I0
aa(lp7326
I1
aa(lp7327
I2
aa(lp7328
I0
aa(lp7329
I3
aa(lp7330
I4
aa(lp7331
I5
aa(lp7332
I3
aa(lp7333
I3
aa(lp7334
I5
aa(lp7335
I1
aa(lp7336
I0
aa(lp7337
I4
aa(lp7338
I3
aa(lp7339
I6
aa(lp7340
I0
aa(lp7341
I0
aaa(lp7342
(lp7343
a(lp7344
I0
aa(lp7345
I0
aa(lp7346
I0
aa(lp7347
I0
aa(lp7348
I0
aaa(lp7349
(lp7350
a(lp7351
I0
aa(lp7352
I1
aa(lp7353
I0
aa(lp7354
I3
aa(lp7355
I2
aa(lp7356
I3
aa(lp7357
I4
aa(lp7358
I5
aa(lp7359
I3
aa(lp7360
I0
aa(lp7361
I0
aa(lp7362
I1
aa(lp7363
I2
aa(lp7364
I0
aaa(lp7365
(lp7366
a(lp7367
I0
aa(lp7368
I1
aa(lp7369
I2
aa(lp7370
I3
aa(lp7371
I0
aa(lp7372
I4
aa(lp7373
I5
aa(lp7374
I0
aa(lp7375
I5
aa(lp7376
I4
aa(lp7377
I6
aa(lp7378
I4
aa(lp7379
I7
aa(lp7380
I5
aa(lp7381
I0
aa(lp7382
I5
aa(lp7383
I6
aa(lp7384
I6
aa(lp7385
I0
aa(lp7386
I3
aaa(lp7387
(lp7388
a(lp7389
I0
aa(lp7390
I0
aa(lp7391
I0
aa(lp7392
I1
aa(lp7393
I0
aa(lp7394
I0
aa(lp7395
I1
aa(lp7396
I0
aa(lp7397
I0
aa(lp7398
I0
aaa(lp7399
(lp7400
a(lp7401
I0
aa(lp7402
I1
aa(lp7403
I1
aa(lp7404
I1
aa(lp7405
I0
aa(lp7406
I1
aa(lp7407
I5
aa(lp7408
I2
aa(lp7409
I2
aa(lp7410
I3
aa(lp7411
I0
aa(lp7412
I4
aa(lp7413
I4
aa(lp7414
I3
aa(lp7415
I4
aa(lp7416
I0
aa(lp7417
I0
aaa(lp7418
(lp7419
a(lp7420
I0
aa(lp7421
I1
aa(lp7422
I0
aa(lp7423
I2
aa(lp7424
I4
aa(lp7425
I3
aa(lp7426
I4
aa(lp7427
I2
aa(lp7428
I0
aa(lp7429
I2
aa(lp7430
I1
aa(lp7431
I0
aa(lp7432
I1
aa(lp7433
I0
aaa(lp7434
(lp7435
a(lp7436
I0
aa(lp7437
I0
aa(lp7438
I2
aa(lp7439
I1
aa(lp7440
I0
aaa(lp7441
(lp7442
a(lp7443
I0
aa(lp7444
I0
aa(lp7445
I1
aa(lp7446
I2
aa(lp7447
I1
aa(lp7448
I0
aa(lp7449
I1
aa(lp7450
I0
aa(lp7451
I1
aa(lp7452
I2
aa(lp7453
I0
aa(lp7454
I0
aa(lp7455
I1
aa(lp7456
I1
aaa(lp7457
(lp7458
a(lp7459
I0
aa(lp7460
I1
aa(lp7461
I0
aa(lp7462
I1
aa(lp7463
I1
aa(lp7464
I0
aa(lp7465
I0
aa(lp7466
I0
aaa(lp7467
(lp7468
a(lp7469
I0
aa(lp7470
I0
aa(lp7471
I1
aa(lp7472
I0
aa(lp7473
I0
aa(lp7474
I2
aa(lp7475
I0
aa(lp7476
I0
aa(lp7477
I0
aaa(lp7478
(lp7479
a(lp7480
I0
aa(lp7481
I1
aa(lp7482
I0
aa(lp7483
I0
aa(lp7484
I4
aa(lp7485
I2
aa(lp7486
I4
aa(lp7487
I3
aa(lp7488
I7
aa(lp7489
I2
aa(lp7490
I6
aa(lp7491
I6
aa(lp7492
I8
aa(lp7493
I4
aa(lp7494
I2
aa(lp7495
I0
aa(lp7496
I2
aa(lp7497
I0
aa(lp7498
I0
aa(lp7499
I1
aa(lp7500
I2
aa(lp7501
I5
aa(lp7502
I3
aa(lp7503
I0
aa(lp7504
I0
aa(lp7505
I2
aaa(lp7506
(lp7507
a(lp7508
I0
aa(lp7509
I0
aa(lp7510
I1
aa(lp7511
I0
aa(lp7512
I0
aa(lp7513
I0
aa(lp7514
I0
aaa(lp7515
(lp7516
a(lp7517
I0
aa(lp7518
I0
aa(lp7519
I1
aa(lp7520
I0
aa(lp7521
I1
aa(lp7522
I0
aa(lp7523
I0
aaa(lp7524
(lp7525
a(lp7526
I0
aa(lp7527
I1
aa(lp7528
I1
aa(lp7529
I0
aa(lp7530
I0
aa(lp7531
I0
aaa(lp7532
(lp7533
a(lp7534
I0
aa(lp7535
I1
aa(lp7536
I2
aa(lp7537
I0
aa(lp7538
I1
aa(lp7539
I1
aa(lp7540
I3
aa(lp7541
I4
aa(lp7542
I0
aa(lp7543
I3
aa(lp7544
I0
aa(lp7545
I4
aa(lp7546
I4
aa(lp7547
I0
aaa(lp7548
(lp7549
a(lp7550
I0
aa(lp7551
I1
aa(lp7552
I1
aa(lp7553
I2
aa(lp7554
I0
aa(lp7555
I0
aa(lp7556
I1
aa(lp7557
I1
aa(lp7558
I0
aa(lp7559
I0
aa(lp7560
I0
aaa(lp7561
(lp7562
a(lp7563
I0
aa(lp7564
I1
aa(lp7565
I0
aa(lp7566
I0
aa(lp7567
I2
aa(lp7568
I1
aa(lp7569
I4
aa(lp7570
I0
aa(lp7571
I4
aa(lp7572
I1
aa(lp7573
I0
aa(lp7574
I3
aa(lp7575
I3
aa(lp7576
I4
aa(lp7577
I0
aa(lp7578
I0
aa(lp7579
I1
aaa(lp7580
(lp7581
a(lp7582
I0
aa(lp7583
I0
aa(lp7584
I1
aa(lp7585
I2
aa(lp7586
I0
aa(lp7587
I3
aa(lp7588
I3
aa(lp7589
I0
aa(lp7590
I3
aa(lp7591
I2
aa(lp7592
I0
aa(lp7593
I2
aa(lp7594
I6
aa(lp7595
I4
aa(lp7596
I6
aa(lp7597
I0
aa(lp7598
I2
aa(lp7599
I3
aa(lp7600
I6
aa(lp7601
I2
aa(lp7602
I1
aa(lp7603
I2
aa(lp7604
I0
aa(lp7605
I4
aa(lp7606
I0
aa(lp7607
I5
aa(lp7608
I5
aa(lp7609
I5
aa(lp7610
I0
aa(lp7611
I0
aa(lp7612
I0
aa(lp7613
I7
aaa(lp7614
(lp7615
a(lp7616
I0
aa(lp7617
I0
aa(lp7618
I0
aa(lp7619
I1
aa(lp7620
I0
aaa(lp7621
(lp7622
a(lp7623
I0
aa(lp7624
I1
aa(lp7625
I1
aa(lp7626
I3
aa(lp7627
I2
aa(lp7628
I1
aa(lp7629
I0
aa(lp7630
I0
aa(lp7631
I0
aaa(lp7632
(lp7633
a(lp7634
I0
aa(lp7635
I0
aaa(lp7636
(lp7637
a(lp7638
I0
aa(lp7639
I1
aa(lp7640
I1
aa(lp7641
I2
aa(lp7642
I0
aa(lp7643
I0
aa(lp7644
I0
aa(lp7645
I3
aa(lp7646
I2
aa(lp7647
I5
aa(lp7648
I4
aa(lp7649
I0
aa(lp7650
I1
aa(lp7651
I6
aa(lp7652
I4
aa(lp7653
I0
aaa(lp7654
(lp7655
a(lp7656
I0
aa(lp7657
I1
aa(lp7658
I2
aa(lp7659
I2
aa(lp7660
I3
aa(lp7661
I0
aa(lp7662
I2
aa(lp7663
I3
aa(lp7664
I3
aa(lp7665
I2
aa(lp7666
I5
aa(lp7667
I1
aa(lp7668
I6
aa(lp7669
I2
aa(lp7670
I6
aa(lp7671
I0
aa(lp7672
I4
aa(lp7673
I5
aa(lp7674
I0
aaa(lp7675
(lp7676
a(lp7677
I0
aa(lp7678
I1
aa(lp7679
I0
aa(lp7680
I2
aa(lp7681
I1
aa(lp7682
I4
aa(lp7683
I0
aa(lp7684
I5
aa(lp7685
I0
aa(lp7686
I2
aa(lp7687
I3
aa(lp7688
I4
aa(lp7689
I7
aa(lp7690
I8
aa(lp7691
I0
aa(lp7692
I10
aa(lp7693
I9
aa(lp7694
I6
aa(lp7695
I10
aa(lp7696
I11
aa(lp7697
I3
aa(lp7698
I7
aa(lp7699
I2
aa(lp7700
I11
aa(lp7701
I1
aa(lp7702
I6
aa(lp7703
I7
aa(lp7704
I0
aa(lp7705
I3
aa(lp7706
I7
aa(lp7707
I0
aa(lp7708
I0
aa(lp7709
I0
aa(lp7710
I0
aa(lp7711
I0
aaa(lp7712
(lp7713
a(lp7714
I0
aa(lp7715
I0
aa(lp7716
I0
aa(lp7717
I1
aa(lp7718
I2
aa(lp7719
I1
aa(lp7720
I2
aa(lp7721
I2
aa(lp7722
I0
aa(lp7723
I0
aaa(lp7724
(lp7725
a(lp7726
I0
aa(lp7727
I0
aa(lp7728
I1
aa(lp7729
I2
aa(lp7730
I2
aa(lp7731
I0
aa(lp7732
I0
aaa(lp7733
(lp7734
a(lp7735
I0
aa(lp7736
I1
aa(lp7737
I1
aa(lp7738
I2
aa(lp7739
I2
aa(lp7740
I3
aa(lp7741
I6
aa(lp7742
I5
aa(lp7743
I4
aa(lp7744
I6
aa(lp7745
I4
aa(lp7746
I2
aa(lp7747
I4
aa(lp7748
I4
aa(lp7749
I0
aa(lp7750
I1
aa(lp7751
I0
aa(lp7752
I4
aa(lp7753
I0
aa(lp7754
I0
aa(lp7755
I1
aaa(lp7756
(lp7757
a(lp7758
I0
aa(lp7759
I0
aa(lp7760
I1
aa(lp7761
I2
aa(lp7762
I1
aa(lp7763
I3
aa(lp7764
I2
aa(lp7765
I0
aa(lp7766
I4
aa(lp7767
I1
aa(lp7768
I0
aa(lp7769
I0
aa(lp7770
I3
aa(lp7771
I4
aa(lp7772
I0
aa(lp7773
I1
aa(lp7774
I0
aa(lp7775
I0
aa(lp7776
I1
aaa(lp7777
(lp7778
a(lp7779
I0
aa(lp7780
I1
aa(lp7781
I0
aa(lp7782
I3
aa(lp7783
I1
aa(lp7784
I1
aa(lp7785
I1
aa(lp7786
I2
aa(lp7787
I0
aa(lp7788
I0
aa(lp7789
I0
aa(lp7790
I0
aaa(lp7791
(lp7792
a(lp7793
I0
aa(lp7794
I0
aa(lp7795
I1
aa(lp7796
I2
aa(lp7797
I0
aa(lp7798
I1
aa(lp7799
I0
aa(lp7800
I1
aa(lp7801
I0
aa(lp7802
I0
aaa(lp7803
(lp7804
a(lp7805
I0
aa(lp7806
I1
aa(lp7807
I2
aa(lp7808
I3
aa(lp7809
I4
aa(lp7810
I4
aa(lp7811
I1
aa(lp7812
I5
aa(lp7813
I1
aa(lp7814
I3
aa(lp7815
I5
aa(lp7816
I7
aa(lp7817
I4
aa(lp7818
I6
aa(lp7819
I1
aa(lp7820
I1
aa(lp7821
I8
aa(lp7822
I0
aa(lp7823
I0
aa(lp7824
I0
aaa(lp7825
(lp7826
a(lp7827
I0
aa(lp7828
I1
aa(lp7829
I2
aa(lp7830
I3
aa(lp7831
I4
aa(lp7832
I0
aa(lp7833
I2
aa(lp7834
I6
aa(lp7835
I0
aa(lp7836
I2
aa(lp7837
I2
aa(lp7838
I1
aa(lp7839
I2
aa(lp7840
I6
aa(lp7841
I5
aa(lp7842
I1
aa(lp7843
I0
aa(lp7844
I0
aa(lp7845
I0
aa(lp7846
I0
aa(lp7847
I0
aaa(lp7848
(lp7849
a(lp7850
I0
aa(lp7851
I0
aa(lp7852
I0
aa(lp7853
I0
aa(lp7854
I0
aaa(lp7855
(lp7856
a(lp7857
I0
aa(lp7858
I1
aa(lp7859
I2
aa(lp7860
I1
aa(lp7861
I0
aa(lp7862
I0
aa(lp7863
I3
aa(lp7864
I0
aa(lp7865
I0
aa(lp7866
I0
aaa(lp7867
(lp7868
a(lp7869
I0
aa(lp7870
I0
aa(lp7871
I0
aa(lp7872
I0
aaa(lp7873
(lp7874
a(lp7875
I0
aa(lp7876
I1
aa(lp7877
I2
aa(lp7878
I3
aa(lp7879
I4
aa(lp7880
I3
aa(lp7881
I3
aa(lp7882
I2
aa(lp7883
I3
aa(lp7884
I2
aa(lp7885
I2
aa(lp7886
I3
aa(lp7887
I0
aa(lp7888
I0
aaa(lp7889
(lp7890
a(lp7891
I0
aa(lp7892
I1
aa(lp7893
I0
aa(lp7894
I0
aa(lp7895
I2
aa(lp7896
I3
aa(lp7897
I5
aa(lp7898
I3
aa(lp7899
I1
aa(lp7900
I3
aa(lp7901
I1
aa(lp7902
I1
aa(lp7903
I5
aa(lp7904
I6
aa(lp7905
I0
aa(lp7906
I5
aa(lp7907
I1
aa(lp7908
I1
aa(lp7909
I4
aa(lp7910
I2
aa(lp7911
I0
aaa(lp7912
(lp7913
a(lp7914
I0
aa(lp7915
I1
aa(lp7916
I2
aa(lp7917
I1
aa(lp7918
I0
aa(lp7919
I1
aa(lp7920
I0
aa(lp7921
I0
aaa(lp7922
(lp7923
a(lp7924
I0
aa(lp7925
I1
aa(lp7926
I2
aa(lp7927
I2
aa(lp7928
I1
aa(lp7929
I2
aa(lp7930
I4
aa(lp7931
I3
aa(lp7932
I4
aa(lp7933
I5
aa(lp7934
I6
aa(lp7935
I2
aa(lp7936
I3
aa(lp7937
I6
aa(lp7938
I4
aa(lp7939
I6
aa(lp7940
I2
aa(lp7941
I8
aa(lp7942
I4
aa(lp7943
I3
aa(lp7944
I6
aa(lp7945
I2
aa(lp7946
I4
aa(lp7947
I0
aa(lp7948
I7
aa(lp7949
I0
aaa(lp7950
(lp7951
a(lp7952
I0
aa(lp7953
I1
aa(lp7954
I1
aa(lp7955
I2
aa(lp7956
I1
aa(lp7957
I0
aa(lp7958
I0
aa(lp7959
I0
aa(lp7960
I0
aa(lp7961
I0
aa(lp7962
I1
aa(lp7963
I0
aaa(lp7964
(lp7965
a(lp7966
I0
aa(lp7967
I1
aa(lp7968
I0
aa(lp7969
I1
aa(lp7970
I0
aa(lp7971
I0
aaa(lp7972
(lp7973
a(lp7974
I0
aa(lp7975
I1
aa(lp7976
I1
aa(lp7977
I2
aa(lp7978
I1
aa(lp7979
I0
aa(lp7980
I2
aa(lp7981
I0
aaa(lp7982
(lp7983
a(lp7984
I0
aa(lp7985
I1
aa(lp7986
I2
aa(lp7987
I2
aa(lp7988
I1
aa(lp7989
I3
aa(lp7990
I2
aa(lp7991
I3
aa(lp7992
I0
aa(lp7993
I0
aa(lp7994
I0
aa(lp7995
I0
aa(lp7996
I0
aaa(lp7997
(lp7998
a(lp7999
I0
aa(lp8000
I0
aa(lp8001
I0
aa(lp8002
I1
aa(lp8003
I0
aa(lp8004
I1
aa(lp8005
I0
aa(lp8006
I0
aaa(lp8007
(lp8008
a(lp8009
I0
aa(lp8010
I0
aa(lp8011
I2
aa(lp8012
I2
aa(lp8013
I2
aa(lp8014
I1
aa(lp8015
I2
aa(lp8016
I0
aa(lp8017
I1
aa(lp8018
I0
aaa(lp8019
(lp8020
a(lp8021
I0
aa(lp8022
I0
aa(lp8023
I2
aa(lp8024
I0
aa(lp8025
I1
aa(lp8026
I4
aa(lp8027
I5
aa(lp8028
I3
aa(lp8029
I1
aa(lp8030
I2
aa(lp8031
I4
aa(lp8032
I0
aaa(lp8033
(lp8034
a(lp8035
I0
aa(lp8036
I0
aa(lp8037
I0
aa(lp8038
I1
aa(lp8039
I2
aa(lp8040
I1
aa(lp8041
I1
aa(lp8042
I3
aa(lp8043
I0
aa(lp8044
I4
aa(lp8045
I0
aa(lp8046
I0
aa(lp8047
I0
aaa(lp8048
(lp8049
a(lp8050
I0
aa(lp8051
I1
aa(lp8052
I0
aa(lp8053
I2
aa(lp8054
I4
aa(lp8055
I1
aa(lp8056
I2
aa(lp8057
I0
aa(lp8058
I0
aa(lp8059
I0
aa(lp8060
I3
aa(lp8061
I0
aaa(lp8062
(lp8063
a(lp8064
I0
aa(lp8065
I0
aa(lp8066
I0
aa(lp8067
I0
aa(lp8068
I0
aaa(lp8069
(lp8070
a(lp8071
I0
aa(lp8072
I1
aa(lp8073
I0
aa(lp8074
I1
aa(lp8075
I0
aa(lp8076
I0
aaa(lp8077
(lp8078
a(lp8079
I0
aa(lp8080
I0
aa(lp8081
I0
aa(lp8082
I1
aa(lp8083
I2
aa(lp8084
I0
aaa(lp8085
(lp8086
a(lp8087
I0
aa(lp8088
I1
aa(lp8089
I0
aa(lp8090
I0
aa(lp8091
I1
aa(lp8092
I0
aa(lp8093
I1
aa(lp8094
I0
aa(lp8095
I0
aaa(lp8096
(lp8097
a(lp8098
I0
aa(lp8099
a(lp8100
I1
aa(lp8101
I0
aa(lp8102
I2
aa(lp8103
I3
aa(lp8104
I1
aa(lp8105
I0
aa(lp8106
I1
aa(lp8107
I0
aa(lp8108
I2
aaa(lp8109
(lp8110
a(lp8111
I0
aa(lp8112
I1
aa(lp8113
I2
aa(lp8114
I0
aa(lp8115
I4
aa(lp8116
I3
aa(lp8117
I6
aa(lp8118
I5
aa(lp8119
I1
aa(lp8120
I9
aa(lp8121
I7
aa(lp8122
I6
aa(lp8123
I1
aa(lp8124
I5
aa(lp8125
I3
aa(lp8126
I1
aa(lp8127
I1
aa(lp8128
I4
aa(lp8129
I9
aa(lp8130
I5
aa(lp8131
I8
aa(lp8132
I5
aa(lp8133
I6
aa(lp8134
I1
aa(lp8135
I9
aa(lp8136
I8
aa(lp8137
I4
aa(lp8138
I5
aa(lp8139
I9
aa(lp8140
I3
aa(lp8141
I0
aaa(lp8142
(lp8143
a(lp8144
I0
aa(lp8145
I0
aa(lp8146
I0
aa(lp8147
I1
aa(lp8148
I1
aa(lp8149
I3
aa(lp8150
I2
aa(lp8151
I0
aa(lp8152
I0
aa(lp8153
I0
aaa(lp8154
(lp8155
a(lp8156
I0
aa(lp8157
I1
aa(lp8158
I0
aa(lp8159
I2
aa(lp8160
I0
aa(lp8161
I2
aa(lp8162
I1
aa(lp8163
I0
aa(lp8164
I3
aa(lp8165
I0
aa(lp8166
I0
aa(lp8167
I0
aa(lp8168
I0
aa(lp8169
I0
aaa(lp8170
(lp8171
a(lp8172
I0
aa(lp8173
I1
aa(lp8174
I2
aa(lp8175
I3
aa(lp8176
I4
aa(lp8177
I1
aa(lp8178
I1
aa(lp8179
I0
aa(lp8180
I4
aa(lp8181
I7
aa(lp8182
I1
aa(lp8183
I5
aa(lp8184
I2
aa(lp8185
I3
aa(lp8186
I1
aa(lp8187
I0
aa(lp8188
I0
aa(lp8189
I6
aa(lp8190
I2
aa(lp8191
I1
aa(lp8192
I2
aa(lp8193
I7
aa(lp8194
I8
aa(lp8195
I0
aa(lp8196
I1
aa(lp8197
I5
aaa(lp8198
(lp8199
a(lp8200
I0
aa(lp8201
I1
aa(lp8202
I1
aa(lp8203
I1
aa(lp8204
I1
aa(lp8205
I0
aaa(lp8206
(lp8207
a(lp8208
I0
aa(lp8209
I1
aa(lp8210
I1
aa(lp8211
I2
aa(lp8212
I2
aa(lp8213
I1
aa(lp8214
I2
aa(lp8215
I1
aa(lp8216
I0
aa(lp8217
I0
aaa(lp8218
(lp8219
a(lp8220
I0
aa(lp8221
I0
aa(lp8222
I0
aa(lp8223
I1
aa(lp8224
I2
aa(lp8225
I2
aa(lp8226
I1
aa(lp8227
I2
aa(lp8228
I0
aa(lp8229
I0
aa(lp8230
I0
aa(lp8231
I2
aaa(lp8232
(lp8233
a(lp8234
I0
aa(lp8235
I1
aa(lp8236
I2
aa(lp8237
I2
aa(lp8238
I0
aa(lp8239
I1
aa(lp8240
I1
aa(lp8241
I0
aa(lp8242
I0
aa(lp8243
I0
aa(lp8244
I1
aaa(lp8245
(lp8246
a(lp8247
I0
aa(lp8248
I1
aa(lp8249
I2
aa(lp8250
I3
aa(lp8251
I4
aa(lp8252
I5
aa(lp8253
I0
aa(lp8254
I6
aa(lp8255
I4
aa(lp8256
I6
aa(lp8257
I0
aa(lp8258
I6
aa(lp8259
I0
aaa(lp8260
(lp8261
a(lp8262
I0
aa(lp8263
I0
aa(lp8264
I1
aa(lp8265
I2
aa(lp8266
I4
aa(lp8267
I1
aa(lp8268
I0
aa(lp8269
I4
aa(lp8270
I2
aa(lp8271
I2
aa(lp8272
I0
aa(lp8273
I3
aa(lp8274
I2
aa(lp8275
I1
aa(lp8276
I0
aa(lp8277
I0
aaa(lp8278
(lp8279
a(lp8280
I0
aa(lp8281
I0
aa(lp8282
I1
aa(lp8283
I1
aa(lp8284
I0
aa(lp8285
I0
aaa(lp8286
(lp8287
a(lp8288
I0
aa(lp8289
I1
aa(lp8290
I1
aa(lp8291
I0
aa(lp8292
I0
aaa(lp8293
(lp8294
a(lp8295
I0
aa(lp8296
I0
aa(lp8297
I1
aa(lp8298
I0
aa(lp8299
I2
aa(lp8300
I4
aa(lp8301
I1
aa(lp8302
I4
aa(lp8303
I0
aa(lp8304
I5
aa(lp8305
I3
aa(lp8306
I0
aa(lp8307
I3
aa(lp8308
I0
aa(lp8309
I0
aa(lp8310
I0
aa(lp8311
I0
aa(lp8312
I0
aaa(lp8313
(lp8314
a(lp8315
I0
aa(lp8316
I0
aa(lp8317
I0
aa(lp8318
I3
aa(lp8319
I2
aa(lp8320
I0
aa(lp8321
I1
aa(lp8322
I0
aa(lp8323
I1
aa(lp8324
I0
aa(lp8325
I0
aaa(lp8326
(lp8327
a(lp8328
I0
aa(lp8329
I1
aa(lp8330
I0
aa(lp8331
I1
aa(lp8332
I0
aa(lp8333
I0
aaa(lp8334
(lp8335
a(lp8336
I0
aa(lp8337
I1
aa(lp8338
I0
aa(lp8339
I3
aa(lp8340
I2
aa(lp8341
I5
aa(lp8342
I4
aa(lp8343
I2
aa(lp8344
I1
aa(lp8345
I0
aa(lp8346
I5
aa(lp8347
I6
aa(lp8348
I2
aa(lp8349
I6
aa(lp8350
I0
aa(lp8351
I7
aa(lp8352
I5
aa(lp8353
I0
aaa(lp8354
(lp8355
a(lp8356
I0
aa(lp8357
I1
aa(lp8358
I0
aa(lp8359
I1
aa(lp8360
I1
aa(lp8361
I0
aa(lp8362
I0
aa(lp8363
I0
aa(lp8364
I0
aaa(lp8365
(lp8366
a(lp8367
I0
aa(lp8368
I1
aa(lp8369
I2
aa(lp8370
I3
aa(lp8371
I4
aa(lp8372
I5
aa(lp8373
I6
aa(lp8374
I6
aa(lp8375
I2
aa(lp8376
I1
aa(lp8377
I7
aa(lp8378
I5
aa(lp8379
I5
aa(lp8380
I4
aa(lp8381
I10
aa(lp8382
I4
aa(lp8383
I5
aa(lp8384
I9
aa(lp8385
I11
aa(lp8386
I2
aa(lp8387
I10
aa(lp8388
I2
aa(lp8389
I3
aa(lp8390
I1
aa(lp8391
I9
aa(lp8392
I8
aa(lp8393
I4
aa(lp8394
I8
aa(lp8395
I2
aa(lp8396
I2
aa(lp8397
I5
aa(lp8398
I5
aa(lp8399
I9
aa(lp8400
I0
aa(lp8401
I0
aaa(lp8402
(lp8403
a(lp8404
I0
aa(lp8405
I1
aa(lp8406
I2
aa(lp8407
I3
aa(lp8408
I4
aa(lp8409
I5
aa(lp8410
I1
aa(lp8411
I1
aa(lp8412
I4
aa(lp8413
I2
aa(lp8414
I5
aa(lp8415
I4
aa(lp8416
I0
aa(lp8417
I0
aaa(lp8418
(lp8419
a(lp8420
I0
aa(lp8421
I1
aa(lp8422
I0
aa(lp8423
I1
aa(lp8424
I1
aa(lp8425
I1
aa(lp8426
I1
aa(lp8427
I1
aa(lp8428
I1
aa(lp8429
I1
aa(lp8430
I0
aaa(lp8431
(lp8432
a(lp8433
I0
aa(lp8434
I1
aa(lp8435
I0
aa(lp8436
I1
aa(lp8437
I1
aa(lp8438
I0
aa(lp8439
I0
aa(lp8440
I0
aa(lp8441
I0
aaa(lp8442
(lp8443
a(lp8444
I0
aa(lp8445
I1
aa(lp8446
I1
aa(lp8447
I2
aa(lp8448
I1
aa(lp8449
I1
aa(lp8450
I0
aaa(lp8451
(lp8452
a(lp8453
I0
aa(lp8454
I1
aa(lp8455
I1
aa(lp8456
I0
aa(lp8457
I2
aa(lp8458
I2
aa(lp8459
I0
aa(lp8460
I0
aa(lp8461
I0
aa(lp8462
I0
aaa(lp8463
(lp8464
a(lp8465
I0
aa(lp8466
I1
aa(lp8467
I2
aa(lp8468
I3
aa(lp8469
I0
aa(lp8470
I1
aa(lp8471
I4
aa(lp8472
I0
aa(lp8473
I2
aa(lp8474
I5
aa(lp8475
I6
aa(lp8476
I0
aa(lp8477
I4
aa(lp8478
I2
aa(lp8479
I1
aa(lp8480
I4
aa(lp8481
I3
aa(lp8482
I0
aa(lp8483
I0
aaa(lp8484
(lp8485
a(lp8486
I0
aa(lp8487
I1
aa(lp8488
I1
aa(lp8489
I1
aa(lp8490
I3
aa(lp8491
I1
aa(lp8492
I2
aa(lp8493
I3
aa(lp8494
I0
aa(lp8495
I0
aaa(lp8496
(lp8497
a(lp8498
I0
aa(lp8499
I1
aa(lp8500
I0
aa(lp8501
I0
aa(lp8502
I0
aa(lp8503
I1
aa(lp8504
I0
aa(lp8505
I0
aa(lp8506
I0
aaa(lp8507
(lp8508
a(lp8509
I0
aa(lp8510
I0
aa(lp8511
I0
aaa(lp8512
(lp8513
a(lp8514
I0
aa(lp8515
I1
aa(lp8516
I0
aa(lp8517
I1
aa(lp8518
I0
aa(lp8519
I1
aa(lp8520
I3
aa(lp8521
I1
aa(lp8522
I4
aa(lp8523
I2
aa(lp8524
I1
aa(lp8525
I1
aa(lp8526
I3
aa(lp8527
I0
aa(lp8528
I0
aaa(lp8529
(lp8530
a(lp8531
I0
aa(lp8532
I0
aa(lp8533
I0
aa(lp8534
I0
aa(lp8535
I1
aa(lp8536
I1
aa(lp8537
I0
aa(lp8538
I1
aa(lp8539
I2
aa(lp8540
I1
aa(lp8541
I0
aa(lp8542
I2
aa(lp8543
I0
aaa(lp8544
(lp8545
a(lp8546
I0
aa(lp8547
I1
aa(lp8548
I0
aa(lp8549
I1
aa(lp8550
I2
aa(lp8551
I0
aa(lp8552
I1
aa(lp8553
I1
aa(lp8554
I2
aa(lp8555
I1
aa(lp8556
I3
aa(lp8557
I0
aaa(lp8558
(lp8559
a(lp8560
I0
aa(lp8561
I1
aa(lp8562
I1
aa(lp8563
I1
aa(lp8564
I0
aa(lp8565
I0
aa(lp8566
I0
aa(lp8567
I0
aa(lp8568
I0
aa(lp8569
I0
aaa(lp8570
(lp8571
a(lp8572
I0
aa(lp8573
I0
aa(lp8574
I1
aa(lp8575
I2
aa(lp8576
I0
aa(lp8577
I3
aa(lp8578
I1
aa(lp8579
I5
aa(lp8580
I4
aa(lp8581
I4
aa(lp8582
I3
aa(lp8583
I5
aa(lp8584
I0
aa(lp8585
I1
aa(lp8586
I1
aa(lp8587
I0
aa(lp8588
I0
aa(lp8589
I0
aa(lp8590
I5
aa(lp8591
I0
aa(lp8592
I0
aaaa(lp8593
(lp8594
(lp8595
VI_ROOT
p8596
aa(lp8597
VI_dobj
p8598
aa(lp8599
VI_det
p8600
aa(lp8601
VI_compound
p8602
aa(lp8603
VI_nsubj
p8604
aa(lp8605
VI_punct
p8606
aaa(lp8607
(lp8608
VI_ROOT
p8609
aa(lp8610
VI_nmod
p8611
aa(lp8612
VI_advcl
p8613
aa(lp8614
VI_nsubj
p8615
aa(lp8616
VI_nmod
p8617
aa(lp8618
VI_nmod
p8619
aa(lp8620
VI_nmod
p8621
aa(lp8622
VI_aux
p8623
aa(lp8624
VI_dobj
p8625
aa(lp8626
VI_case
p8627
aa(lp8628
VI_det
p8629
aa(lp8630
VI_det
p8631
aa(lp8632
VI_aux
p8633
aa(lp8634
VI_aux
p8635
aa(lp8636
VI_case
p8637
aa(lp8638
VI_mark
p8639
aa(lp8640
VI_amod
p8641
aa(lp8642
VI_cop
p8643
aa(lp8644
VI_case
p8645
aa(lp8646
VI_nsubj
p8647
aa(lp8648
VI_case
p8649
aa(lp8650
VI_punct
p8651
aa(lp8652
VI_punct
p8653
aaa(lp8654
(lp8655
VI_ROOT
p8656
aa(lp8657
VI_ccomp
p8658
aa(lp8659
VI_ccomp
p8660
aa(lp8661
VI_xcomp
p8662
aa(lp8663
VI_nsubj
p8664
aa(lp8665
VI_advmod
p8666
aa(lp8667
VI_amod
p8668
aa(lp8669
VI_nmod
p8670
aa(lp8671
VI_amod
p8672
aa(lp8673
VI_nmod
p8674
aa(lp8675
VI_det
p8676
aa(lp8677
VI_advmod
p8678
aa(lp8679
VI_case
p8680
aa(lp8681
VI_advmod
p8682
aa(lp8683
VI_nsubj
p8684
aa(lp8685
VI_cop
p8686
aa(lp8687
VI_case
p8688
aa(lp8689
VI_punct
p8690
aaa(lp8691
(lp8692
VI_ROOT
p8693
aa(lp8694
VI_nmod
p8695
aa(lp8696
VI_nmod:poss
p8697
aa(lp8698
VI_dobj
p8699
aa(lp8700
VI_case
p8701
aa(lp8702
VI_advmod
p8703
aa(lp8704
VI_punct
p8705
aaa(lp8706
(lp8707
VI_ROOT
p8708
aa(lp8709
VI_acl
p8710
aa(lp8711
VI_dobj
p8712
aa(lp8713
VI_nummod
p8714
aa(lp8715
VI_nmod
p8716
aa(lp8717
VI_advmod
p8718
aa(lp8719
VI_cop
p8720
aa(lp8721
VI_advmod
p8722
aa(lp8723
VI_mwe
p8724
aa(lp8725
VI_compound
p8726
aa(lp8727
VI_amod
p8728
aa(lp8729
VI_case
p8730
aa(lp8731
VI_det
p8732
aa(lp8733
VI_nsubj
p8734
aa(lp8735
VI_punct
p8736
aaa(lp8737
(lp8738
VI_ROOT
p8739
aa(lp8740
VI_conj
p8741
aa(lp8742
VI_dobj
p8743
aa(lp8744
VI_nmod
p8745
aa(lp8746
VI_nmod
p8747
aa(lp8748
VI_case
p8749
aa(lp8750
VI_det
p8751
aa(lp8752
VI_case
p8753
aa(lp8754
VI_case
p8755
aa(lp8756
VI_advmod
p8757
aa(lp8758
VI_cc
p8759
aa(lp8760
VI_cop
p8761
aa(lp8762
VI_nsubj
p8763
aa(lp8764
VI_punct
p8765
aaa(lp8766
(lp8767
VI_ROOT
p8768
aa(lp8769
VI_ccomp
p8770
aa(lp8771
VI_ccomp
p8772
aa(lp8773
VI_ccomp
p8774
aa(lp8775
VI_acl:relcl
p8776
aa(lp8777
VI_nsubjpass
p8778
aa(lp8779
VI_nsubj
p8780
aa(lp8781
VI_conj
p8782
aa(lp8783
VI_advcl
p8784
aa(lp8785
VI_nsubj
p8786
aa(lp8787
VI_nmod
p8788
aa(lp8789
VI_nmod
p8790
aa(lp8791
VI_aux
p8792
aa(lp8793
VI_cop
p8794
aa(lp8795
VI_auxpass
p8796
aa(lp8797
VI_det
p8798
aa(lp8799
VI_nsubj
p8800
aa(lp8801
VI_expl
p8802
aa(lp8803
VI_det
p8804
aa(lp8805
VI_mark
p8806
aa(lp8807
VI_nsubj
p8808
aa(lp8809
VI_mark
p8810
aa(lp8811
VI_amod
p8812
aa(lp8813
VI_cc
p8814
aa(lp8815
VI_amod
p8816
aa(lp8817
VI_case
p8818
aa(lp8819
VI_case
p8820
aa(lp8821
VI_neg
p8822
aa(lp8823
VI_advmod
p8824
aa(lp8825
VI_aux
p8826
aa(lp8827
VI_cc
p8828
aa(lp8829
VI_nsubj
p8830
aa(lp8831
VI_punct
p8832
aa(lp8833
VI_punct
p8834
aaa(lp8835
(lp8836
VI_ROOT
p8837
aa(lp8838
VI_nsubj
p8839
aa(lp8840
VI_cop
p8841
aa(lp8842
VI_det
p8843
aa(lp8844
VI_amod
p8845
aa(lp8846
VI_det
p8847
aa(lp8848
VI_advmod
p8849
aa(lp8850
VI_punct
p8851
aa(lp8852
VI_punct
p8853
aaa(lp8854
(lp8855
VI_ROOT
p8856
aa(lp8857
VI_conj
p8858
aa(lp8859
VI_advmod
p8860
aa(lp8861
VI_advmod
p8862
aa(lp8863
VI_xcomp
p8864
aa(lp8865
VI_cc
p8866
aa(lp8867
VI_punct
p8868
aaa(lp8869
(lp8870
VI_ROOT
p8871
aa(lp8872
VI_nsubj
p8873
aa(lp8874
VI_conj
p8875
aa(lp8876
VI_det
p8877
aa(lp8878
VI_cop
p8879
aa(lp8880
VI_cc
p8881
aa(lp8882
VI_punct
p8883
aaa(lp8884
(lp8885
VI_ROOT
p8886
aa(lp8887
VI_conj
p8888
aa(lp8889
VI_ccomp
p8890
aa(lp8891
VI_conj
p8892
aa(lp8893
VI_nsubj
p8894
aa(lp8895
VI_aux
p8896
aa(lp8897
VI_neg
p8898
aa(lp8899
VI_dobj
p8900
aa(lp8901
VI_dobj
p8902
aa(lp8903
VI_dobj
p8904
aa(lp8905
VI_cc
p8906
aa(lp8907
VI_nsubj
p8908
aa(lp8909
VI_punct
p8910
aa(lp8911
VI_punct
p8912
aa(lp8913
VI_punct
p8914
aaa(lp8915
(lp8916
VI_ROOT
p8917
aa(lp8918
VI_nmod
p8919
aa(lp8920
VI_advcl
p8921
aa(lp8922
VI_nsubj
p8923
aa(lp8924
VI_nsubj
p8925
aa(lp8926
VI_det
p8927
aa(lp8928
VI_neg
p8929
aa(lp8930
VI_neg
p8931
aa(lp8932
VI_aux
p8933
aa(lp8934
VI_case
p8935
aa(lp8936
VI_dobj
p8937
aa(lp8938
VI_aux
p8939
aa(lp8940
VI_cop
p8941
aa(lp8942
VI_mark
p8943
aa(lp8944
VI_punct
p8945
aa(lp8946
VI_punct
p8947
aaa(lp8948
(lp8949
VI_ROOT
p8950
aa(lp8951
VI_punct
p8952
aa(lp8953
VI_root
p8954
aa(lp8955
VI_dep
p8956
aa(lp8957
VI_dep
p8958
aa(lp8959
VI_advmod
p8960
aa(lp8961
VI_nmod
p8962
aa(lp8963
VI_dobj
p8964
aa(lp8965
VI_case
p8966
aa(lp8967
VI_det
p8968
aa(lp8969
VI_compound
p8970
aa(lp8971
VI_amod
p8972
aa(lp8973
VI_case
p8974
aa(lp8975
VI_conj
p8976
aa(lp8977
VI_cc
p8978
aa(lp8979
VI_punct
p8980
aaa(lp8981
(lp8982
VI_ROOT
p8983
aa(lp8984
VI_conj
p8985
aa(lp8986
VI_ccomp
p8987
aa(lp8988
VI_dep
p8989
aa(lp8990
VI_dobj
p8991
aa(lp8992
VI_advmod
p8993
aa(lp8994
VI_compound
p8995
aa(lp8996
VI_cc
p8997
aa(lp8998
VI_nsubj
p8999
aa(lp9000
VI_nsubj
p9001
aa(lp9002
VI_punct
p9003
aaa(lp9004
(lp9005
VI_ROOT
p9006
aa(lp9007
VI_conj
p9008
aa(lp9009
VI_conj
p9010
aa(lp9011
VI_nmod
p9012
aa(lp9013
VI_nsubj
p9014
aa(lp9015
VI_nmod
p9016
aa(lp9017
VI_nsubj
p9018
aa(lp9019
VI_compound
p9020
aa(lp9021
VI_det
p9022
aa(lp9023
VI_det
p9024
aa(lp9025
VI_amod
p9026
aa(lp9027
VI_case
p9028
aa(lp9029
VI_case
p9030
aa(lp9031
VI_xcomp
p9032
aa(lp9033
VI_cc
p9034
aa(lp9035
VI_det:predet
p9036
aa(lp9037
VI_det
p9038
aa(lp9039
VI_det
p9040
aa(lp9041
VI_punct
p9042
aa(lp9043
VI_punct
p9044
aaa(lp9045
(lp9046
VI_ROOT
p9047
aa(lp9048
VI_amod
p9049
aa(lp9050
VI_nmod:poss
p9051
aa(lp9052
VI_cop
p9053
aa(lp9054
VI_nsubj
p9055
aa(lp9056
VI_punct
p9057
aaa(lp9058
(lp9059
VI_ROOT
p9060
aa(lp9061
VI_nsubj
p9062
aa(lp9063
VI_acl:relcl
p9064
aa(lp9065
VI_conj
p9066
aa(lp9067
VI_nmod
p9068
aa(lp9069
VI_nmod
p9070
aa(lp9071
VI_det
p9072
aa(lp9073
VI_case
p9074
aa(lp9075
VI_case
p9076
aa(lp9077
VI_case
p9078
aa(lp9079
VI_cc
p9080
aa(lp9081
VI_advmod
p9082
aa(lp9083
VI_det
p9084
aa(lp9085
VI_nsubj
p9086
aa(lp9087
VI_punct
p9088
aaa(lp9089
(lp9090
VI_ROOT
p9091
aa(lp9092
VI_advmod
p9093
aa(lp9094
VI_root
p9095
aa(lp9096
VI_root
p9097
aa(lp9098
VI_dobj
p9099
aa(lp9100
VI_nmod
p9101
aa(lp9102
VI_acl:relcl
p9103
aa(lp9104
VI_case
p9105
aa(lp9106
VI_aux
p9107
aa(lp9108
VI_det
p9109
aa(lp9110
VI_det
p9111
aa(lp9112
VI_advmod
p9113
aa(lp9114
VI_amod
p9115
aa(lp9116
VI_mwe
p9117
aa(lp9118
VI_advmod
p9119
aa(lp9120
VI_dobj
p9121
aa(lp9122
VI_compound
p9123
aa(lp9124
VI_nsubj
p9125
aa(lp9126
VI_advmod
p9127
aa(lp9128
VI_nsubj
p9129
aa(lp9130
VI_punct
p9131
aaa(lp9132
(lp9133
VI_ROOT
p9134
aa(lp9135
VI_conj
p9136
aa(lp9137
VI_nmod:poss
p9138
aa(lp9139
VI_cop
p9140
aa(lp9141
VI_amod
p9142
aa(lp9143
VI_cc
p9144
aa(lp9145
VI_nsubj
p9146
aa(lp9147
VI_compound
p9148
aa(lp9149
VI_compound
p9150
aa(lp9151
VI_amod
p9152
aa(lp9153
VI_punct
p9154
aaa(lp9155
(lp9156
VI_ROOT
p9157
aa(lp9158
VI_parataxis
p9159
aa(lp9160
VI_ccomp
p9161
aa(lp9162
VI_advmod
p9163
aa(lp9164
VI_nmod
p9165
aa(lp9166
VI_dobj
p9167
aa(lp9168
VI_aux
p9169
aa(lp9170
VI_det
p9171
aa(lp9172
VI_advmod
p9173
aa(lp9174
VI_nsubj
p9175
aa(lp9176
VI_conj
p9177
aa(lp9178
VI_aux
p9179
aa(lp9180
VI_case
p9181
aa(lp9182
VI_amod
p9183
aa(lp9184
VI_cc
p9185
aa(lp9186
VI_det
p9187
aa(lp9188
VI_nsubj
p9189
aa(lp9190
VI_punct
p9191
aaa(lp9192
(lp9193
VI_ROOT
p9194
aa(lp9195
VI_nsubj
p9196
aa(lp9197
VI_nmod
p9198
aa(lp9199
VI_advmod
p9200
aa(lp9201
VI_nmod
p9202
aa(lp9203
VI_case
p9204
aa(lp9205
VI_advmod
p9206
aa(lp9207
VI_det
p9208
aa(lp9209
VI_case
p9210
aa(lp9211
VI_neg
p9212
aa(lp9213
VI_nmod:poss
p9214
aa(lp9215
VI_compound
p9216
aa(lp9217
VI_aux
p9218
aa(lp9219
VI_det
p9220
aa(lp9221
VI_punct
p9222
aaa(lp9223
(lp9224
VI_ROOT
p9225
aa(lp9226
VI_nsubj
p9227
aa(lp9228
VI_dobj
p9229
aa(lp9230
VI_amod
p9231
aa(lp9232
VI_det
p9233
aa(lp9234
VI_punct
p9235
aaa(lp9236
(lp9237
VI_ROOT
p9238
aa(lp9239
VI_dep
p9240
aa(lp9241
VI_conj
p9242
aa(lp9243
VI_det
p9244
aa(lp9245
VI_cc
p9246
aa(lp9247
VI_neg
p9248
aa(lp9249
VI_cc
p9250
aa(lp9251
VI_cop
p9252
aa(lp9253
VI_cop
p9254
aa(lp9255
VI_nsubj
p9256
aa(lp9257
VI_conj
p9258
aa(lp9259
VI_nsubj
p9260
aa(lp9261
VI_punct
p9262
aa(lp9263
VI_punct
p9264
aa(lp9265
VI_punct
p9266
aaa(lp9267
(lp9268
VI_ROOT
p9269
aa(lp9270
VI_nmod
p9271
aa(lp9272
VI_case
p9273
aa(lp9274
VI_advmod
p9275
aa(lp9276
VI_nmod:poss
p9277
aa(lp9278
VI_amod
p9279
aa(lp9280
VI_auxpass
p9281
aa(lp9282
VI_nsubjpass
p9283
aa(lp9284
VI_punct
p9285
aaa(lp9286
(lp9287
VI_ROOT
p9288
aa(lp9289
VI_dobj
p9290
aa(lp9291
VI_conj
p9292
aa(lp9293
VI_nmod:poss
p9294
aa(lp9295
VI_aux
p9296
aa(lp9297
VI_advmod
p9298
aa(lp9299
VI_compound:prt
p9300
aa(lp9301
VI_cc
p9302
aa(lp9303
VI_nsubj
p9304
aa(lp9305
VI_punct
p9306
aaa(lp9307
(lp9308
VI_ROOT
p9309
aa(lp9310
VI_advmod
p9311
aa(lp9312
VI_advcl
p9313
aa(lp9314
VI_nsubj
p9315
aa(lp9316
VI_conj
p9317
aa(lp9318
VI_dobj
p9319
aa(lp9320
VI_nsubj
p9321
aa(lp9322
VI_nsubj
p9323
aa(lp9324
VI_nmod
p9325
aa(lp9326
VI_det
p9327
aa(lp9328
VI_nmod:poss
p9329
aa(lp9330
VI_det
p9331
aa(lp9332
VI_compound
p9333
aa(lp9334
VI_case
p9335
aa(lp9336
VI_advmod
p9337
aa(lp9338
VI_amod
p9339
aa(lp9340
VI_aux
p9341
aa(lp9342
VI_case
p9343
aa(lp9344
VI_cc
p9345
aa(lp9346
VI_aux
p9347
aa(lp9348
VI_advmod
p9349
aa(lp9350
VI_mark
p9351
aa(lp9352
VI_det
p9353
aa(lp9354
VI_nmod:poss
p9355
aa(lp9356
VI_punct
p9357
aa(lp9358
VI_punct
p9359
aa(lp9360
VI_punct
p9361
aaa(lp9362
(lp9363
VI_ROOT
p9364
aa(lp9365
VI_conj
p9366
aa(lp9367
VI_conj
p9368
aa(lp9369
VI_neg
p9370
aa(lp9371
VI_cc
p9372
aa(lp9373
VI_cc
p9374
aa(lp9375
VI_nsubj
p9376
aa(lp9377
VI_punct
p9378
aaa(lp9379
(lp9380
VI_ROOT
p9381
aa(lp9382
VI_advmod
p9383
aa(lp9384
VI_aux
p9385
aa(lp9386
VI_conj
p9387
aa(lp9388
VI_advmod
p9389
aa(lp9390
VI_cc
p9391
aa(lp9392
VI_nsubj
p9393
aa(lp9394
VI_punct
p9395
aaa(lp9396
(lp9397
VI_ROOT
p9398
aa(lp9399
VI_dobj
p9400
aa(lp9401
VI_det
p9402
aa(lp9403
VI_compound
p9404
aa(lp9405
VI_advmod
p9406
aa(lp9407
VI_nsubj
p9408
aa(lp9409
VI_punct
p9410
aaa(lp9411
(lp9412
VI_ROOT
p9413
aa(lp9414
VI_advcl
p9415
aa(lp9416
VI_dobj
p9417
aa(lp9418
VI_nmod
p9419
aa(lp9420
VI_nsubj
p9421
aa(lp9422
VI_nsubj
p9423
aa(lp9424
VI_advmod
p9425
aa(lp9426
VI_det
p9427
aa(lp9428
VI_amod
p9429
aa(lp9430
VI_advmod
p9431
aa(lp9432
VI_case
p9433
aa(lp9434
VI_cop
p9435
aa(lp9436
VI_amod
p9437
aa(lp9438
VI_det
p9439
aa(lp9440
VI_punct
p9441
aaa(lp9442
(lp9443
VI_ROOT
p9444
aa(lp9445
VI_parataxis
p9446
aa(lp9447
VI_dobj
p9448
aa(lp9449
VI_nsubj
p9450
aa(lp9451
VI_det
p9452
aa(lp9453
VI_amod
p9454
aa(lp9455
VI_dep
p9456
aa(lp9457
VI_advmod
p9458
aa(lp9459
VI_aux
p9460
aa(lp9461
VI_nsubj
p9462
aa(lp9463
VI_punct
p9464
aa(lp9465
VI_punct
p9466
aaa(lp9467
(lp9468
VI_ROOT
p9469
aa(lp9470
VI_dep
p9471
aa(lp9472
VI_nmod
p9473
aa(lp9474
VI_nsubjpass
p9475
aa(lp9476
VI_advcl
p9477
aa(lp9478
VI_case
p9479
aa(lp9480
VI_advmod
p9481
aa(lp9482
VI_mark
p9483
aa(lp9484
VI_neg
p9485
aa(lp9486
VI_dobj
p9487
aa(lp9488
VI_nsubjpass
p9489
aa(lp9490
VI_aux
p9491
aa(lp9492
VI_compound
p9493
aa(lp9494
VI_det
p9495
aa(lp9496
VI_nsubj
p9497
aa(lp9498
VI_punct
p9499
aa(lp9500
VI_punct
p9501
aa(lp9502
VI_auxpass
p9503
aaa(lp9504
(lp9505
VI_ROOT
p9506
aa(lp9507
VI_conj
p9508
aa(lp9509
VI_advcl
p9510
aa(lp9511
VI_xcomp
p9512
aa(lp9513
VI_dobj
p9514
aa(lp9515
VI_advcl
p9516
aa(lp9517
VI_nmod
p9518
aa(lp9519
VI_dobj
p9520
aa(lp9521
VI_aux
p9522
aa(lp9523
VI_mark
p9524
aa(lp9525
VI_mark
p9526
aa(lp9527
VI_nsubj
p9528
aa(lp9529
VI_nsubj
p9530
aa(lp9531
VI_det
p9532
aa(lp9533
VI_amod
p9534
aa(lp9535
VI_compound
p9536
aa(lp9537
VI_neg
p9538
aa(lp9539
VI_neg
p9540
aa(lp9541
VI_iobj
p9542
aa(lp9543
VI_case
p9544
aa(lp9545
VI_advmod
p9546
aa(lp9547
VI_advmod
p9548
aa(lp9549
VI_aux
p9550
aa(lp9551
VI_dobj
p9552
aa(lp9553
VI_det
p9554
aa(lp9555
VI_cc
p9556
aa(lp9557
VI_advmod
p9558
aa(lp9559
VI_xcomp
p9560
aa(lp9561
VI_nsubj
p9562
aa(lp9563
VI_punct
p9564
aa(lp9565
VI_punct
p9566
aa(lp9567
VI_punct
p9568
aa(lp9569
VI_dep
p9570
aaa(lp9571
(lp9572
VI_ROOT
p9573
aa(lp9574
VI_nsubj
p9575
aa(lp9576
VI_advmod
p9577
aa(lp9578
VI_cop
p9579
aa(lp9580
VI_nmod:poss
p9581
aa(lp9582
VI_punct
p9583
aaa(lp9584
(lp9585
VI_ROOT
p9586
aa(lp9587
VI_conj
p9588
aa(lp9589
VI_dobj
p9590
aa(lp9591
VI_advmod
p9592
aa(lp9593
VI_case
p9594
aa(lp9595
VI_nmod:poss
p9596
aa(lp9597
VI_nsubj
p9598
aa(lp9599
VI_cc
p9600
aa(lp9601
VI_det
p9602
aa(lp9603
VI_punct
p9604
aaa(lp9605
(lp9606
VI_ROOT
p9607
aa(lp9608
VI_amod
p9609
aa(lp9610
VI_punct
p9611
aaa(lp9612
(lp9613
VI_ROOT
p9614
aa(lp9615
VI_conj
p9616
aa(lp9617
VI_conj
p9618
aa(lp9619
VI_dobj
p9620
aa(lp9621
VI_dobj
p9622
aa(lp9623
VI_advcl
p9624
aa(lp9625
VI_nsubj
p9626
aa(lp9627
VI_cop
p9628
aa(lp9629
VI_det
p9630
aa(lp9631
VI_iobj
p9632
aa(lp9633
VI_case
p9634
aa(lp9635
VI_det
p9636
aa(lp9637
VI_cc
p9638
aa(lp9639
VI_cc
p9640
aa(lp9641
VI_amod
p9642
aa(lp9643
VI_nummod
p9644
aa(lp9645
VI_punct
p9646
aaa(lp9647
(lp9648
VI_ROOT
p9649
aa(lp9650
VI_ccomp
p9651
aa(lp9652
VI_xcomp
p9653
aa(lp9654
VI_dep
p9655
aa(lp9656
VI_nmod
p9657
aa(lp9658
VI_nmod
p9659
aa(lp9660
VI_nsubj
p9661
aa(lp9662
VI_mark
p9663
aa(lp9664
VI_advmod
p9665
aa(lp9666
VI_dobj
p9667
aa(lp9668
VI_dobj
p9669
aa(lp9670
VI_case
p9671
aa(lp9672
VI_dep
p9673
aa(lp9674
VI_conj
p9675
aa(lp9676
VI_compound:prt
p9677
aa(lp9678
VI_cc
p9679
aa(lp9680
VI_cc
p9681
aa(lp9682
VI_case
p9683
aa(lp9684
VI_nummod
p9685
aa(lp9686
VI_punct
p9687
aaa(lp9688
(lp9689
VI_ROOT
p9690
aa(lp9691
VI_conj
p9692
aa(lp9693
VI_acl
p9694
aa(lp9695
VI_advcl
p9696
aa(lp9697
VI_advcl
p9698
aa(lp9699
VI_nummod
p9700
aa(lp9701
VI_dobj
p9702
aa(lp9703
VI_parataxis
p9704
aa(lp9705
VI_advmod
p9706
aa(lp9707
VI_dobj
p9708
aa(lp9709
VI_nmod
p9710
aa(lp9711
VI_nmod
p9712
aa(lp9713
VI_mark
p9714
aa(lp9715
VI_advmod
p9716
aa(lp9717
VI_mwe
p9718
aa(lp9719
VI_dep
p9720
aa(lp9721
VI_case
p9722
aa(lp9723
VI_nmod:poss
p9724
aa(lp9725
VI_nmod:poss
p9726
aa(lp9727
VI_nmod:poss
p9728
aa(lp9729
VI_nmod:poss
p9730
aa(lp9731
VI_dobj
p9732
aa(lp9733
VI_dobj
p9734
aa(lp9735
VI_dobj
p9736
aa(lp9737
VI_case
p9738
aa(lp9739
VI_case
p9740
aa(lp9741
VI_compound
p9742
aa(lp9743
VI_aux
p9744
aa(lp9745
VI_cc
p9746
aa(lp9747
VI_mark
p9748
aa(lp9749
VI_nsubj
p9750
aa(lp9751
VI_nsubj
p9752
aa(lp9753
VI_punct
p9754
aa(lp9755
VI_punct
p9756
aa(lp9757
VI_punct
p9758
aa(lp9759
VI_punct
p9760
aaa(lp9761
(lp9762
VI_ROOT
p9763
aa(lp9764
VI_dobj
p9765
aa(lp9766
VI_nmod
p9767
aa(lp9768
VI_aux
p9769
aa(lp9770
VI_det
p9771
aa(lp9772
VI_conj
p9773
aa(lp9774
VI_compound
p9775
aa(lp9776
VI_cc
p9777
aa(lp9778
VI_advmod
p9779
aa(lp9780
VI_nsubj
p9781
aa(lp9782
VI_punct
p9783
aaa(lp9784
(lp9785
VI_ROOT
p9786
aa(lp9787
VI_xcomp
p9788
aa(lp9789
VI_nsubj
p9790
aa(lp9791
VI_mark
p9792
aa(lp9793
VI_det
p9794
aa(lp9795
VI_compound
p9796
aa(lp9797
VI_cop
p9798
aa(lp9799
VI_punct
p9800
aaa(lp9801
(lp9802
VI_ROOT
p9803
aa(lp9804
VI_dobj
p9805
aa(lp9806
VI_conj
p9807
aa(lp9808
VI_acl
p9809
aa(lp9810
VI_nmod
p9811
aa(lp9812
VI_nmod
p9813
aa(lp9814
VI_nmod
p9815
aa(lp9816
VI_case
p9817
aa(lp9818
VI_case
p9819
aa(lp9820
VI_amod
p9821
aa(lp9822
VI_det
p9823
aa(lp9824
VI_amod
p9825
aa(lp9826
VI_neg
p9827
aa(lp9828
VI_nmod:poss
p9829
aa(lp9830
VI_case
p9831
aa(lp9832
VI_aux
p9833
aa(lp9834
VI_cc
p9835
aa(lp9836
VI_advmod
p9837
aa(lp9838
VI_compound
p9839
aa(lp9840
VI_nsubj
p9841
aa(lp9842
VI_punct
p9843
aa(lp9844
VI_punct
p9845
aaa(lp9846
(lp9847
VI_ROOT
p9848
aa(lp9849
VI_advcl
p9850
aa(lp9851
VI_acl
p9852
aa(lp9853
VI_xcomp
p9854
aa(lp9855
VI_nmod
p9856
aa(lp9857
VI_nsubj
p9858
aa(lp9859
VI_mark
p9860
aa(lp9861
VI_mark
p9862
aa(lp9863
VI_nsubj
p9864
aa(lp9865
VI_case
p9866
aa(lp9867
VI_neg
p9868
aa(lp9869
VI_cop
p9870
aa(lp9871
VI_amod
p9872
aa(lp9873
VI_cop
p9874
aa(lp9875
VI_det
p9876
aa(lp9877
VI_det
p9878
aa(lp9879
VI_mark
p9880
aa(lp9881
VI_punct
p9882
aa(lp9883
VI_punct
p9884
aa(lp9885
VI_aux
p9886
aaa(lp9887
(lp9888
VI_ROOT
p9889
aa(lp9890
VI_conj
p9891
aa(lp9892
VI_dobj
p9893
aa(lp9894
VI_nmod
p9895
aa(lp9896
VI_case
p9897
aa(lp9898
VI_neg
p9899
aa(lp9900
VI_iobj
p9901
aa(lp9902
VI_nsubj
p9903
aa(lp9904
VI_det
p9905
aa(lp9906
VI_cc
p9907
aa(lp9908
VI_advmod
p9909
aa(lp9910
VI_nsubj
p9911
aa(lp9912
VI_punct
p9913
aaa(lp9914
(lp9915
VI_ROOT
p9916
aa(lp9917
VI_dobj
p9918
aa(lp9919
VI_nmod
p9920
aa(lp9921
VI_nmod:poss
p9922
aa(lp9923
VI_case
p9924
aa(lp9925
VI_neg
p9926
aa(lp9927
VI_conj
p9928
aa(lp9929
VI_aux
p9930
aa(lp9931
VI_cc
p9932
aa(lp9933
VI_advmod
p9934
aa(lp9935
VI_punct
p9936
aaa(lp9937
(lp9938
VI_ROOT
p9939
aa(lp9940
VI_ccomp
p9941
aa(lp9942
VI_xcomp
p9943
aa(lp9944
VI_ccomp
p9945
aa(lp9946
VI_ccomp
p9947
aa(lp9948
VI_ccomp
p9949
aa(lp9950
VI_nsubj
p9951
aa(lp9952
VI_nsubj
p9953
aa(lp9954
VI_nsubj
p9955
aa(lp9956
VI_dobj
p9957
aa(lp9958
VI_nsubj
p9959
aa(lp9960
VI_dobj
p9961
aa(lp9962
VI_nmod:poss
p9963
aa(lp9964
VI_mark
p9965
aa(lp9966
VI_advmod
p9967
aa(lp9968
VI_aux
p9969
aa(lp9970
VI_advmod
p9971
aa(lp9972
VI_det
p9973
aa(lp9974
VI_punct
p9975
aa(lp9976
VI_punct
p9977
aa(lp9978
VI_punct
p9979
aaa(lp9980
(lp9981
VI_ROOT
p9982
aa(lp9983
VI_nmod
p9984
aa(lp9985
VI_acl:relcl
p9986
aa(lp9987
VI_nmod:tmod
p9988
aa(lp9989
VI_nummod
p9990
aa(lp9991
VI_nmod:npmod
p9992
aa(lp9993
VI_dobj
p9994
aa(lp9995
VI_nsubj
p9996
aa(lp9997
VI_det
p9998
aa(lp9999
VI_advmod
p10000
aa(lp10001
VI_neg
p10002
aa(lp10003
VI_dobj
p10004
aa(lp10005
VI_case
p10006
aa(lp10007
VI_aux
p10008
aa(lp10009
VI_amod
p10010
aa(lp10011
VI_case
p10012
aa(lp10013
VI_det
p10014
aa(lp10015
VI_nsubj
p10016
aa(lp10017
VI_cc
p10018
aa(lp10019
VI_punct
p10020
aa(lp10021
VI_aux
p10022
aa(lp10023
VI_punct
p10024
aaa(lp10025
(lp10026
VI_ROOT
p10027
aa(lp10028
VI_det
p10029
aa(lp10030
VI_amod
p10031
aa(lp10032
VI_cop
p10033
aa(lp10034
VI_nsubj
p10035
aa(lp10036
VI_punct
p10037
aaa(lp10038
(lp10039
VI_ROOT
p10040
aa(lp10041
VI_conj
p10042
aa(lp10043
VI_dobj
p10044
aa(lp10045
VI_acl
p10046
aa(lp10047
VI_nsubj
p10048
aa(lp10049
VI_advmod
p10050
aa(lp10051
VI_nmod:poss
p10052
aa(lp10053
VI_dobj
p10054
aa(lp10055
VI_cc
p10056
aa(lp10057
VI_cc
p10058
aa(lp10059
VI_punct
p10060
aaa(lp10061
(lp10062
VI_ROOT
p10063
aa(lp10064
VI_auxpass
p10065
aa(lp10066
VI_advmod
p10067
aa(lp10068
VI_nsubjpass
p10069
aa(lp10070
VI_punct
p10071
aaa(lp10072
(lp10073
VI_ROOT
p10074
aa(lp10075
VI_ccomp
p10076
aa(lp10077
VI_ccomp
p10078
aa(lp10079
VI_ccomp
p10080
aa(lp10081
VI_dep
p10082
aa(lp10083
VI_amod
p10084
aa(lp10085
VI_nsubj
p10086
aa(lp10087
VI_cop
p10088
aa(lp10089
VI_advmod
p10090
aa(lp10091
VI_amod
p10092
aa(lp10093
VI_aux
p10094
aa(lp10095
VI_nsubj
p10096
aa(lp10097
VI_det
p10098
aa(lp10099
VI_nsubj
p10100
aa(lp10101
VI_punct
p10102
aaa(lp10103
(lp10104
VI_ROOT
p10105
aa(lp10106
VI_conj
p10107
aa(lp10108
VI_conj
p10109
aa(lp10110
VI_dobj
p10111
aa(lp10112
VI_nsubj
p10113
aa(lp10114
VI_advcl
p10115
aa(lp10116
VI_nmod
p10117
aa(lp10118
VI_mark
p10119
aa(lp10120
VI_det
p10121
aa(lp10122
VI_nsubj
p10123
aa(lp10124
VI_amod
p10125
aa(lp10126
VI_cop
p10127
aa(lp10128
VI_case
p10129
aa(lp10130
VI_conj
p10131
aa(lp10132
VI_case
p10133
aa(lp10134
VI_cc
p10135
aa(lp10136
VI_cc
p10137
aa(lp10138
VI_cc
p10139
aa(lp10140
VI_det
p10141
aa(lp10142
VI_nmod:poss
p10143
aa(lp10144
VI_dobj
p10145
aa(lp10146
VI_punct
p10147
aaa(lp10148
(lp10149
VI_ROOT
p10150
aa(lp10151
VI_dep
p10152
aa(lp10153
VI_dobj
p10154
aa(lp10155
VI_det
p10156
aa(lp10157
VI_neg
p10158
aa(lp10159
VI_amod
p10160
aa(lp10161
VI_aux
p10162
aa(lp10163
VI_punct
p10164
aa(lp10165
VI_punct
p10166
aaa(lp10167
(lp10168
VI_ROOT
p10169
aa(lp10170
VI_nsubj
p10171
aa(lp10172
VI_acl:relcl
p10173
aa(lp10174
VI_nmod
p10175
aa(lp10176
VI_advcl
p10177
aa(lp10178
VI_amod
p10179
aa(lp10180
VI_nsubj
p10181
aa(lp10182
VI_nmod
p10183
aa(lp10184
VI_nmod
p10185
aa(lp10186
VI_nsubj
p10187
aa(lp10188
VI_advmod
p10189
aa(lp10190
VI_det
p10191
aa(lp10192
VI_det
p10193
aa(lp10194
VI_advmod
p10195
aa(lp10196
VI_advmod
p10197
aa(lp10198
VI_neg
p10199
aa(lp10200
VI_compound
p10201
aa(lp10202
VI_cop
p10203
aa(lp10204
VI_case
p10205
aa(lp10206
VI_mark
p10207
aa(lp10208
VI_case
p10209
aa(lp10210
VI_compound
p10211
aa(lp10212
VI_amod
p10213
aa(lp10214
VI_aux
p10215
aa(lp10216
VI_cc
p10217
aa(lp10218
VI_case
p10219
aa(lp10220
VI_punct
p10221
aaa(lp10222
(lp10223
VI_ROOT
p10224
aa(lp10225
VI_conj
p10226
aa(lp10227
VI_nmod
p10228
aa(lp10229
VI_aux
p10230
aa(lp10231
VI_case
p10232
aa(lp10233
VI_dobj
p10234
aa(lp10235
VI_cop
p10236
aa(lp10237
VI_amod
p10238
aa(lp10239
VI_cc
p10240
aa(lp10241
VI_det
p10242
aa(lp10243
VI_nsubj
p10244
aa(lp10245
VI_nsubj
p10246
aa(lp10247
VI_punct
p10248
aaa(lp10249
(lp10250
VI_ROOT
p10251
aa(lp10252
VI_dobj
p10253
aa(lp10254
VI_amod
p10255
aa(lp10256
VI_advmod
p10257
aa(lp10258
VI_det
p10259
aa(lp10260
VI_nsubj
p10261
aa(lp10262
VI_punct
p10263
aaa(lp10264
(lp10265
VI_ROOT
p10266
aa(lp10267
VI_xcomp
p10268
aa(lp10269
VI_nmod
p10270
aa(lp10271
VI_mark
p10272
aa(lp10273
VI_compound
p10274
aa(lp10275
VI_advmod
p10276
aa(lp10277
VI_dobj
p10278
aa(lp10279
VI_case
p10280
aa(lp10281
VI_punct
p10282
aaa(lp10283
(lp10284
VI_ROOT
p10285
aa(lp10286
VI_conj
p10287
aa(lp10288
VI_advcl
p10289
aa(lp10290
VI_advcl
p10291
aa(lp10292
VI_advmod
p10293
aa(lp10294
VI_advmod
p10295
aa(lp10296
VI_mark
p10297
aa(lp10298
VI_nsubj
p10299
aa(lp10300
VI_dobj
p10301
aa(lp10302
VI_cc
p10303
aa(lp10304
VI_cop
p10305
aa(lp10306
VI_nsubj
p10307
aa(lp10308
VI_punct
p10309
aa(lp10310
VI_punct
p10311
aaa(lp10312
(lp10313
VI_ROOT
p10314
aa(lp10315
VI_nsubj
p10316
aa(lp10317
VI_case
p10318
aa(lp10319
VI_cop
p10320
aa(lp10321
VI_amod
p10322
aa(lp10323
VI_cc
p10324
aa(lp10325
VI_nmod:poss
p10326
aa(lp10327
VI_conj
p10328
aa(lp10329
VI_punct
p10330
aaa(lp10331
(lp10332
VI_ROOT
p10333
aa(lp10334
VI_dobj
p10335
aa(lp10336
VI_nmod
p10337
aa(lp10338
VI_compound
p10339
aa(lp10340
VI_nmod:poss
p10341
aa(lp10342
VI_amod
p10343
aa(lp10344
VI_det
p10345
aa(lp10346
VI_case
p10347
aa(lp10348
VI_nsubj
p10349
aa(lp10350
VI_compound
p10351
aa(lp10352
VI_punct
p10353
aaa(lp10354
(lp10355
VI_ROOT
p10356
aa(lp10357
VI_nmod
p10358
aa(lp10359
VI_nsubj
p10360
aa(lp10361
VI_conj
p10362
aa(lp10363
VI_dobj
p10364
aa(lp10365
VI_nmod
p10366
aa(lp10367
VI_det
p10368
aa(lp10369
VI_case
p10370
aa(lp10371
VI_nmod:poss
p10372
aa(lp10373
VI_case
p10374
aa(lp10375
VI_cc
p10376
aa(lp10377
VI_compound
p10378
aa(lp10379
VI_punct
p10380
aaa(lp10381
(lp10382
VI_ROOT
p10383
aa(lp10384
VI_xcomp
p10385
aa(lp10386
VI_nmod:npmod
p10387
aa(lp10388
VI_conj
p10389
aa(lp10390
VI_nmod
p10391
aa(lp10392
VI_advmod
p10393
aa(lp10394
VI_mark
p10395
aa(lp10396
VI_compound:prt
p10397
aa(lp10398
VI_neg
p10399
aa(lp10400
VI_cop
p10401
aa(lp10402
VI_case
p10403
aa(lp10404
VI_cc
p10405
aa(lp10406
VI_nsubj
p10407
aa(lp10408
VI_punct
p10409
aaa(lp10410
(lp10411
VI_ROOT
p10412
aa(lp10413
VI_acl:relcl
p10414
aa(lp10415
VI_ccomp
p10416
aa(lp10417
VI_nsubj
p10418
aa(lp10419
VI_dobj
p10420
aa(lp10421
VI_det
p10422
aa(lp10423
VI_nsubj
p10424
aa(lp10425
VI_nsubj
p10426
aa(lp10427
VI_cop
p10428
aa(lp10429
VI_amod
p10430
aa(lp10431
VI_det
p10432
aa(lp10433
VI_det
p10434
aa(lp10435
VI_punct
p10436
aaa(lp10437
(lp10438
VI_ROOT
p10439
aa(lp10440
VI_advmod
p10441
aa(lp10442
VI_advmod
p10443
aa(lp10444
VI_nsubj
p10445
aa(lp10446
VI_punct
p10447
aa(lp10448
VI_punct
p10449
aaa(lp10450
(lp10451
VI_ROOT
p10452
aa(lp10453
VI_xcomp
p10454
aa(lp10455
VI_mark
p10456
aa(lp10457
VI_auxpass
p10458
aa(lp10459
VI_cop
p10460
aa(lp10461
VI_nsubjpass
p10462
aa(lp10463
VI_punct
p10464
aaa(lp10465
(lp10466
VI_ROOT
p10467
aa(lp10468
VI_advcl
p10469
aa(lp10470
VI_nsubjpass
p10471
aa(lp10472
VI_auxpass
p10473
aa(lp10474
VI_mark
p10475
aa(lp10476
VI_det
p10477
aa(lp10478
VI_punct
p10479
aaa(lp10480
(lp10481
VI_ROOT
p10482
aa(lp10483
VI_nmod
p10484
aa(lp10485
VI_case
p10486
aa(lp10487
VI_det
p10488
aa(lp10489
VI_cop
p10490
aa(lp10491
VI_amod
p10492
aa(lp10493
VI_amod
p10494
aa(lp10495
VI_det
p10496
aa(lp10497
VI_nsubj
p10498
aa(lp10499
VI_punct
p10500
aaa(lp10501
(lp10502
VI_ROOT
p10503
aa(lp10504
VI_dobj
p10505
aa(lp10506
VI_ROOT
p10507
aa(lp10508
VI_advmod
p10509
aa(lp10510
VI_aux
p10511
aa(lp10512
VI_compound
p10513
aa(lp10514
VI_case
p10515
aa(lp10516
VI_det
p10517
aa(lp10518
VI_nsubj
p10519
aa(lp10520
VI_nummod
p10521
aa(lp10522
VI_punct
p10523
aa(lp10524
VI_punct
p10525
aaa(lp10526
(lp10527
VI_ROOT
p10528
aa(lp10529
VI_ccomp
p10530
aa(lp10531
VI_nsubj
p10532
aa(lp10533
VI_acl:relcl
p10534
aa(lp10535
VI_nsubj
p10536
aa(lp10537
VI_acl:relcl
p10538
aa(lp10539
VI_xcomp
p10540
aa(lp10541
VI_xcomp
p10542
aa(lp10543
VI_nmod
p10544
aa(lp10545
VI_conj
p10546
aa(lp10547
VI_dep
p10548
aa(lp10549
VI_mark
p10550
aa(lp10551
VI_mark
p10552
aa(lp10553
VI_expl
p10554
aa(lp10555
VI_dobj
p10556
aa(lp10557
VI_dobj
p10558
aa(lp10559
VI_mark
p10560
aa(lp10561
VI_advmod
p10562
aa(lp10563
VI_amod
p10564
aa(lp10565
VI_neg
p10566
aa(lp10567
VI_neg
p10568
aa(lp10569
VI_nmod:poss
p10570
aa(lp10571
VI_aux
p10572
aa(lp10573
VI_cop
p10574
aa(lp10575
VI_cc
p10576
aa(lp10577
VI_cop
p10578
aa(lp10579
VI_case
p10580
aa(lp10581
VI_det
p10582
aa(lp10583
VI_nsubj
p10584
aa(lp10585
VI_nsubj
p10586
aa(lp10587
VI_nsubj
p10588
aa(lp10589
VI_punct
p10590
aaa(lp10591
(lp10592
VI_ROOT
p10593
aa(lp10594
VI_dobj
p10595
aa(lp10596
VI_nsubj
p10597
aa(lp10598
VI_advcl
p10599
aa(lp10600
VI_det
p10601
aa(lp10602
VI_amod
p10603
aa(lp10604
VI_dobj
p10605
aa(lp10606
VI_amod
p10607
aa(lp10608
VI_aux
p10609
aa(lp10610
VI_punct
p10611
aa(lp10612
VI_punct
p10613
aaa(lp10614
(lp10615
VI_ROOT
p10616
aa(lp10617
VI_parataxis
p10618
aa(lp10619
VI_nmod
p10620
aa(lp10621
VI_nmod
p10622
aa(lp10623
VI_det
p10624
aa(lp10625
VI_neg
p10626
aa(lp10627
VI_case
p10628
aa(lp10629
VI_aux
p10630
aa(lp10631
VI_aux
p10632
aa(lp10633
VI_case
p10634
aa(lp10635
VI_cop
p10636
aa(lp10637
VI_det
p10638
aa(lp10639
VI_nsubj
p10640
aa(lp10641
VI_punct
p10642
aa(lp10643
VI_punct
p10644
aaa(lp10645
(lp10646
VI_ROOT
p10647
aa(lp10648
VI_nmod
p10649
aa(lp10650
VI_conj
p10651
aa(lp10652
VI_acl:relcl
p10653
aa(lp10654
VI_nmod
p10655
aa(lp10656
VI_nmod:poss
p10657
aa(lp10658
VI_case
p10659
aa(lp10660
VI_cc
p10661
aa(lp10662
VI_nsubj
p10663
aa(lp10664
VI_case
p10665
aa(lp10666
VI_mwe
p10667
aa(lp10668
VI_nmod:poss
p10669
aa(lp10670
VI_det
p10671
aa(lp10672
VI_det
p10673
aa(lp10674
VI_nsubj
p10675
aa(lp10676
VI_amod
p10677
aa(lp10678
VI_advmod
p10679
aa(lp10680
VI_compound:prt
p10681
aa(lp10682
VI_mwe
p10683
aa(lp10684
VI_amod
p10685
aa(lp10686
VI_compound
p10687
aa(lp10688
VI_compound
p10689
aa(lp10690
VI_mwe
p10691
aa(lp10692
VI_compound
p10693
aa(lp10694
VI_punct
p10695
aa(lp10696
VI_punct
p10697
aa(lp10698
VI_case
p10699
aaa(lp10700
(lp10701
VI_ROOT
p10702
aa(lp10703
VI_nmod
p10704
aa(lp10705
VI_det:predet
p10706
aa(lp10707
VI_amod
p10708
aa(lp10709
VI_case
p10710
aa(lp10711
VI_det
p10712
aa(lp10713
VI_punct
p10714
aaa(lp10715
(lp10716
VI_ROOT
p10717
aa(lp10718
VI_dobj
p10719
aa(lp10720
VI_nmod
p10721
aa(lp10722
VI_conj
p10723
aa(lp10724
VI_case
p10725
aa(lp10726
VI_amod
p10727
aa(lp10728
VI_amod
p10729
aa(lp10730
VI_compound
p10731
aa(lp10732
VI_cc
p10733
aa(lp10734
VI_nsubj
p10735
aa(lp10736
VI_punct
p10737
aaa(lp10738
(lp10739
VI_ROOT
p10740
aa(lp10741
VI_nmod
p10742
aa(lp10743
VI_ccomp
p10744
aa(lp10745
VI_mark
p10746
aa(lp10747
VI_det
p10748
aa(lp10749
VI_nsubj
p10750
aa(lp10751
VI_amod
p10752
aa(lp10753
VI_case
p10754
aa(lp10755
VI_det
p10756
aa(lp10757
VI_advmod
p10758
aa(lp10759
VI_punct
p10760
aa(lp10761
VI_punct
p10762
aa(lp10763
VI_cop
p10764
aaa(lp10765
(lp10766
VI_ROOT
p10767
aa(lp10768
VI_conj
p10769
aa(lp10770
VI_nmod
p10771
aa(lp10772
VI_case
p10773
aa(lp10774
VI_advmod
p10775
aa(lp10776
VI_amod
p10777
aa(lp10778
VI_nsubj
p10779
aa(lp10780
VI_cop
p10781
aa(lp10782
VI_cc
p10783
aa(lp10784
VI_det
p10785
aa(lp10786
VI_punct
p10787
aa(lp10788
VI_punct
p10789
aaa(lp10790
(lp10791
VI_ROOT
p10792
aa(lp10793
VI_dep
p10794
aa(lp10795
VI_dep
p10796
aa(lp10797
VI_neg
p10798
aa(lp10799
VI_nmod
p10800
aa(lp10801
VI_amod
p10802
aa(lp10803
VI_advcl
p10804
aa(lp10805
VI_nmod:poss
p10806
aa(lp10807
VI_advmod
p10808
aa(lp10809
VI_case
p10810
aa(lp10811
VI_mark
p10812
aa(lp10813
VI_case
p10814
aa(lp10815
VI_nsubj
p10816
aa(lp10817
VI_punct
p10818
aaa(lp10819
(lp10820
VI_ROOT
p10821
aa(lp10822
VI_nsubj
p10823
aa(lp10824
VI_acl:relcl
p10825
aa(lp10826
VI_nmod
p10827
aa(lp10828
VI_advmod
p10829
aa(lp10830
VI_mwe
p10831
aa(lp10832
VI_amod
p10833
aa(lp10834
VI_advmod
p10835
aa(lp10836
VI_mwe
p10837
aa(lp10838
VI_aux
p10839
aa(lp10840
VI_nsubj
p10841
aa(lp10842
VI_cop
p10843
aa(lp10844
VI_case
p10845
aa(lp10846
VI_advmod
p10847
aa(lp10848
VI_det
p10849
aa(lp10850
VI_amod
p10851
aa(lp10852
VI_punct
p10853
aaa(lp10854
(lp10855
VI_ROOT
p10856
aa(lp10857
VI_dobj
p10858
aa(lp10859
VI_cop
p10860
aa(lp10861
VI_amod
p10862
aa(lp10863
VI_det
p10864
aa(lp10865
VI_nsubj
p10866
aa(lp10867
VI_punct
p10868
aaa(lp10869
(lp10870
VI_ROOT
p10871
aa(lp10872
VI_nmod
p10873
aa(lp10874
VI_compound
p10875
aa(lp10876
VI_case
p10877
aa(lp10878
VI_amod
p10879
aa(lp10880
VI_punct
p10881
aaa(lp10882
(lp10883
VI_ROOT
p10884
aa(lp10885
VI_conj
p10886
aa(lp10887
VI_advmod
p10888
aa(lp10889
VI_nmod
p10890
aa(lp10891
VI_nmod
p10892
aa(lp10893
VI_nmod
p10894
aa(lp10895
VI_case
p10896
aa(lp10897
VI_case
p10898
aa(lp10899
VI_det
p10900
aa(lp10901
VI_advmod
p10902
aa(lp10903
VI_case
p10904
aa(lp10905
VI_case
p10906
aa(lp10907
VI_cc
p10908
aa(lp10909
VI_det
p10910
aa(lp10911
VI_nsubj
p10912
aa(lp10913
VI_punct
p10914
aa(lp10915
VI_punct
p10916
aa(lp10917
VI_punct
p10918
aa(lp10919
VI_cop
p10920
aaa(lp10921
(lp10922
VI_ROOT
p10923
aa(lp10924
VI_nsubj
p10925
aa(lp10926
VI_dobj
p10927
aa(lp10928
VI_advmod
p10929
aa(lp10930
VI_advmod
p10931
aa(lp10932
VI_det
p10933
aa(lp10934
VI_neg
p10935
aa(lp10936
VI_compound
p10937
aa(lp10938
VI_aux
p10939
aa(lp10940
VI_det
p10941
aa(lp10942
VI_punct
p10943
aa(lp10944
VI_punct
p10945
aaa(lp10946
(lp10947
VI_ROOT
p10948
aa(lp10949
VI_nmod
p10950
aa(lp10951
VI_case
p10952
aa(lp10953
VI_dobj
p10954
aa(lp10955
VI_det
p10956
aa(lp10957
VI_nsubj
p10958
aa(lp10959
VI_punct
p10960
aaa(lp10961
(lp10962
VI_ROOT
p10963
aa(lp10964
VI_advcl
p10965
aa(lp10966
VI_nmod
p10967
aa(lp10968
VI_nsubj
p10969
aa(lp10970
VI_acl
p10971
aa(lp10972
VI_nmod
p10973
aa(lp10974
VI_nmod
p10975
aa(lp10976
VI_nmod
p10977
aa(lp10978
VI_case
p10979
aa(lp10980
VI_advmod
p10981
aa(lp10982
VI_advmod
p10983
aa(lp10984
VI_amod
p10985
aa(lp10986
VI_nmod:poss
p10987
aa(lp10988
VI_amod
p10989
aa(lp10990
VI_case
p10991
aa(lp10992
VI_cop
p10993
aa(lp10994
VI_case
p10995
aa(lp10996
VI_case
p10997
aa(lp10998
VI_punct
p10999
aaa(lp11000
(lp11001
VI_ROOT
p11002
aa(lp11003
VI_nmod
p11004
aa(lp11005
VI_amod
p11006
aa(lp11007
VI_amod
p11008
aa(lp11009
VI_case
p11010
aa(lp11011
VI_det
p11012
aa(lp11013
VI_det
p11014
aa(lp11015
VI_nsubj
p11016
aa(lp11017
VI_cop
p11018
aa(lp11019
VI_punct
p11020
aaa(lp11021
(lp11022
VI_ROOT
p11023
aa(lp11024
VI_ccomp
p11025
aa(lp11026
VI_advcl
p11027
aa(lp11028
VI_conj
p11029
aa(lp11030
VI_nmod
p11031
aa(lp11032
VI_acl:relcl
p11033
aa(lp11034
VI_conj
p11035
aa(lp11036
VI_nsubj
p11037
aa(lp11038
VI_dobj
p11039
aa(lp11040
VI_dobj
p11041
aa(lp11042
VI_nsubj
p11043
aa(lp11044
VI_nmod
p11045
aa(lp11046
VI_nsubj
p11047
aa(lp11048
VI_aux
p11049
aa(lp11050
VI_case
p11051
aa(lp11052
VI_det
p11053
aa(lp11054
VI_det
p11055
aa(lp11056
VI_dobj
p11057
aa(lp11058
VI_compound
p11059
aa(lp11060
VI_case
p11061
aa(lp11062
VI_aux
p11063
aa(lp11064
VI_compound
p11065
aa(lp11066
VI_nsubj
p11067
aa(lp11068
VI_nsubj
p11069
aa(lp11070
VI_cop
p11071
aa(lp11072
VI_amod
p11073
aa(lp11074
VI_compound
p11075
aa(lp11076
VI_amod
p11077
aa(lp11078
VI_amod
p11079
aa(lp11080
VI_cc
p11081
aa(lp11082
VI_mark
p11083
aa(lp11084
VI_cc
p11085
aa(lp11086
VI_advmod
p11087
aa(lp11088
VI_det
p11089
aa(lp11090
VI_cc
p11091
aa(lp11092
VI_punct
p11093
aaa(lp11094
(lp11095
VI_ROOT
p11096
aa(lp11097
VI_xcomp
p11098
aa(lp11099
VI_nmod
p11100
aa(lp11101
VI_dep
p11102
aa(lp11103
VI_acl:relcl
p11104
aa(lp11105
VI_nmod
p11106
aa(lp11107
VI_case
p11108
aa(lp11109
VI_dobj
p11110
aa(lp11111
VI_mark
p11112
aa(lp11113
VI_dobj
p11114
aa(lp11115
VI_case
p11116
aa(lp11117
VI_det
p11118
aa(lp11119
VI_nsubj
p11120
aa(lp11121
VI_nsubj
p11122
aa(lp11123
VI_punct
p11124
aaa(lp11125
(lp11126
VI_ROOT
p11127
aa(lp11128
VI_dobj
p11129
aa(lp11130
VI_compound
p11131
aa(lp11132
VI_nsubj
p11133
aa(lp11134
VI_compound
p11135
aa(lp11136
VI_compound
p11137
aa(lp11138
VI_compound
p11139
aa(lp11140
VI_compound
p11141
aa(lp11142
VI_compound
p11143
aa(lp11144
VI_compound
p11145
aa(lp11146
VI_compound
p11147
aa(lp11148
VI_punct
p11149
aaa(lp11150
(lp11151
VI_ROOT
p11152
aa(lp11153
VI_conj
p11154
aa(lp11155
VI_advmod
p11156
aa(lp11157
VI_amod
p11158
aa(lp11159
VI_neg
p11160
aa(lp11161
VI_advmod
p11162
aa(lp11163
VI_cc
p11164
aa(lp11165
VI_neg
p11166
aa(lp11167
VI_punct
p11168
aa(lp11169
VI_punct
p11170
aaa(lp11171
(lp11172
VI_ROOT
p11173
aa(lp11174
VI_dep
p11175
aa(lp11176
VI_xcomp
p11177
aa(lp11178
VI_conj
p11179
aa(lp11180
VI_mark
p11181
aa(lp11182
VI_amod
p11183
aa(lp11184
VI_cc
p11185
aa(lp11186
VI_punct
p11187
aaa(lp11188
(lp11189
VI_ROOT
p11190
aa(lp11191
VI_acl
p11192
aa(lp11193
VI_dobj
p11194
aa(lp11195
VI_mark
p11196
aa(lp11197
VI_amod
p11198
aa(lp11199
VI_compound
p11200
aa(lp11201
VI_amod
p11202
aa(lp11203
VI_det
p11204
aa(lp11205
VI_nsubj
p11206
aa(lp11207
VI_punct
p11208
aa(lp11209
VI_cop
p11210
aaa(lp11211
(lp11212
VI_ROOT
p11213
aa(lp11214
VI_conj
p11215
aa(lp11216
VI_dobj
p11217
aa(lp11218
VI_acl:relcl
p11219
aa(lp11220
VI_ccomp
p11221
aa(lp11222
VI_nsubj
p11223
aa(lp11224
VI_advmod
p11225
aa(lp11226
VI_aux
p11227
aa(lp11228
VI_cop
p11229
aa(lp11230
VI_det
p11231
aa(lp11232
VI_det
p11233
aa(lp11234
VI_advmod
p11235
aa(lp11236
VI_advmod
p11237
aa(lp11238
VI_case
p11239
aa(lp11240
VI_advmod
p11241
aa(lp11242
VI_nsubj
p11243
aa(lp11244
VI_nsubj
p11245
aa(lp11246
VI_nsubj
p11247
aa(lp11248
VI_cc
p11249
aa(lp11250
VI_punct
p11251
aaa(lp11252
(lp11253
VI_ROOT
p11254
aa(lp11255
VI_ccomp
p11256
aa(lp11257
VI_nmod
p11258
aa(lp11259
VI_dobj
p11260
aa(lp11261
VI_mark
p11262
aa(lp11263
VI_amod
p11264
aa(lp11265
VI_nsubj
p11266
aa(lp11267
VI_case
p11268
aa(lp11269
VI_amod
p11270
aa(lp11271
VI_nsubj
p11272
aa(lp11273
VI_punct
p11274
aaa(lp11275
(lp11276
VI_ROOT
p11277
aa(lp11278
VI_acl
p11279
aa(lp11280
VI_mark
p11281
aa(lp11282
VI_advmod
p11283
aa(lp11284
VI_nsubj
p11285
aa(lp11286
VI_amod
p11287
aa(lp11288
VI_advmod
p11289
aa(lp11290
VI_det
p11291
aa(lp11292
VI_punct
p11293
aa(lp11294
VI_cop
p11295
aaa(lp11296
(lp11297
VI_ROOT
p11298
aa(lp11299
VI_advmod
p11300
aa(lp11301
VI_amod
p11302
aa(lp11303
VI_punct
p11304
aaa(lp11305
(lp11306
VI_ROOT
p11307
aa(lp11308
VI_xcomp
p11309
aa(lp11310
VI_conj
p11311
aa(lp11312
VI_advcl
p11313
aa(lp11314
VI_dobj
p11315
aa(lp11316
VI_aux
p11317
aa(lp11318
VI_mark
p11319
aa(lp11320
VI_nsubj
p11321
aa(lp11322
VI_compound:prt
p11323
aa(lp11324
VI_nmod:poss
p11325
aa(lp11326
VI_dobj
p11327
aa(lp11328
VI_advmod
p11329
aa(lp11330
VI_cc
p11331
aa(lp11332
VI_advmod
p11333
aa(lp11334
VI_nsubj
p11335
aa(lp11336
VI_punct
p11337
aaa(lp11338
(lp11339
VI_ROOT
p11340
aa(lp11341
VI_acl:relcl
p11342
aa(lp11343
VI_nsubj
p11344
aa(lp11345
VI_cop
p11346
aa(lp11347
VI_det
p11348
aa(lp11349
VI_dobj
p11350
aa(lp11351
VI_aux
p11352
aa(lp11353
VI_amod
p11354
aa(lp11355
VI_advmod
p11356
aa(lp11357
VI_det
p11358
aa(lp11359
VI_nsubj
p11360
aa(lp11361
VI_compound
p11362
aa(lp11363
VI_compound
p11364
aa(lp11365
VI_punct
p11366
aaa(lp11367
(lp11368
VI_ROOT
p11369
aa(lp11370
VI_advcl
p11371
aa(lp11372
VI_nmod
p11373
aa(lp11374
VI_nsubj
p11375
aa(lp11376
VI_amod
p11377
aa(lp11378
VI_case
p11379
aa(lp11380
VI_aux
p11381
aa(lp11382
VI_mark
p11383
aa(lp11384
VI_cop
p11385
aa(lp11386
VI_det
p11387
aa(lp11388
VI_det
p11389
aa(lp11390
VI_nmod:poss
p11391
aa(lp11392
VI_punct
p11393
aaa(lp11394
(lp11395
VI_ROOT
p11396
aa(lp11397
VI_nmod
p11398
aa(lp11399
VI_det
p11400
aa(lp11401
VI_case
p11402
aa(lp11403
VI_amod
p11404
aa(lp11405
VI_compound
p11406
aa(lp11407
VI_aux
p11408
aa(lp11409
VI_cop
p11410
aa(lp11411
VI_det
p11412
aa(lp11413
VI_nsubj
p11414
aa(lp11415
VI_punct
p11416
aaa(lp11417
(lp11418
VI_ROOT
p11419
aa(lp11420
VI_conj
p11421
aa(lp11422
VI_conj
p11423
aa(lp11424
VI_nmod
p11425
aa(lp11426
VI_nmod
p11427
aa(lp11428
VI_dobj
p11429
aa(lp11430
VI_case
p11431
aa(lp11432
VI_advmod
p11433
aa(lp11434
VI_compound
p11435
aa(lp11436
VI_case
p11437
aa(lp11438
VI_det
p11439
aa(lp11440
VI_nmod:poss
p11441
aa(lp11442
VI_compound
p11443
aa(lp11444
VI_aux
p11445
aa(lp11446
VI_aux
p11447
aa(lp11448
VI_cop
p11449
aa(lp11450
VI_cc
p11451
aa(lp11452
VI_cc
p11453
aa(lp11454
VI_advmod
p11455
aa(lp11456
VI_det
p11457
aa(lp11458
VI_nsubj
p11459
aa(lp11460
VI_punct
p11461
aaaa(lp11462
(lp11463
I0
aI1
aI1
aI1
aI1
aI1
aa(lp11464
I0
aI1
aI1
aI1
aI1
aI1
aI1
aI1
aI1
aI1
aI1
aI1
aI1
aI1
aI1
aI1
aI1
aI1
aI1
aI1
aI1
aI1
aI1
aa(lp11465
I0
aI1
aI1
aI1
aI1
aI1
aI1
aI1
aI1
aI1
aI1
aI1
aI1
aI1
aI1
aI1
aI1
aI1
aa(lp11466
I0
aI1
aI1
aI1
aI1
aI1
aI1
aa(lp11467
I0
aI1
aI1
aI1
aI1
aI1
aI1
aI1
aI1
aI1
aI1
aI1
aI1
aI1
aI1
aa(lp11468
I0
aI1
aI1
aI1
aI1
aI1
aI1
aI1
aI1
aI1
aI1
aI1
aI1
aI1
aa(lp11469
I0
aI1
aI1
aI1
aI1
aI1
aI1
aI1
aI1
aI1
aI1
aI1
aI1
aI1
aI1
aI1
aI1
aI1
aI1
aI1
aI1
aI1
aI1
aI1
aI1
aI1
aI1
aI1
aI1
aI1
aI1
aI1
aI1
aI1
aa(lp11470
I0
aI1
aI1
aI1
aI1
aI1
aI1
aI1
aI1
aa(lp11471
I0
aI1
aI1
aI1
aI1
aI1
aI1
aa(lp11472
I0
aI1
aI1
aI1
aI1
aI1
aI1
aa(lp11473
I0
aI1
aI1
aI1
aI1
aI1
aI1
aI1
aI1
aI1
aI1
aI1
aI1
aI1
aI1
aa(lp11474
I0
aI1
aI1
aI1
aI1
aI1
aI1
aI1
aI1
aI1
aI1
aI1
aI1
aI1
aI1
aI1
aa(lp11475
I0
aI1
aI1
aI1
aI1
aI1
aI1
aI1
aI1
aI1
aI1
aI1
aI1
aI1
aI1
aI1
aa(lp11476
I0
aI1
aI1
aI1
aI1
aI1
aI1
aI1
aI1
aI1
aI1
aa(lp11477
I0
aI1
aI1
aI1
aI1
aI1
aI1
aI1
aI1
aI1
aI1
aI1
aI1
aI1
aI1
aI1
aI1
aI1
aI1
aI1
aa(lp11478
I0
aI1
aI1
aI1
aI1
aI1
aa(lp11479
I0
aI1
aI1
aI1
aI1
aI1
aI1
aI1
aI1
aI1
aI1
aI1
aI1
aI1
aI1
aa(lp11480
I0
aI1
aI1
aI1
aI1
aI1
aI1
aI1
aI1
aI1
aI1
aI1
aI1
aI1
aI1
aI1
aI1
aI1
aI1
aI1
aI1
aa(lp11481
I0
aI1
aI1
aI1
aI1
aI1
aI1
aI1
aI1
aI1
aI1
aa(lp11482
I0
aI1
aI1
aI1
aI1
aI1
aI1
aI1
aI1
aI1
aI1
aI1
aI1
aI1
aI1
aI1
aI1
aI1
aa(lp11483
I0
aI1
aI1
aI1
aI1
aI1
aI1
aI1
aI1
aI1
aI1
aI1
aI1
aI1
aI1
aa(lp11484
I0
aI1
aI1
aI1
aI1
aI1
aa(lp11485
I0
aI1
aI1
aI1
aI1
aI1
aI1
aI1
aI1
aI1
aI1
aI1
aI1
aI1
aI1
aa(lp11486
I0
aI1
aI1
aI1
aI1
aI1
aI1
aI1
aI1
aa(lp11487
I0
aI1
aI1
aI1
aI1
aI1
aI1
aI1
aI1
aI1
aa(lp11488
I0
aI1
aI1
aI1
aI1
aI1
aI1
aI1
aI1
aI1
aI1
aI1
aI1
aI1
aI1
aI1
aI1
aI1
aI1
aI1
aI1
aI1
aI1
aI1
aI1
aI1
aI1
aa(lp11489
I0
aI1
aI1
aI1
aI1
aI1
aI1
aI1
aa(lp11490
I0
aI1
aI1
aI1
aI1
aI1
aI1
aI1
aa(lp11491
I0
aI1
aI1
aI1
aI1
aI1
aI1
aa(lp11492
I0
aI1
aI1
aI1
aI1
aI1
aI1
aI1
aI1
aI1
aI1
aI1
aI1
aI1
aI1
aa(lp11493
I0
aI1
aI1
aI1
aI1
aI1
aI1
aI1
aI1
aI1
aI1
aI1
aa(lp11494
I0
aI1
aI1
aI1
aI1
aI1
aI1
aI1
aI1
aI1
aI1
aI1
aI1
aI1
aI1
aI1
aI1
aI1
aa(lp11495
I0
aI1
aI1
aI1
aI1
aI1
aI1
aI1
aI1
aI1
aI1
aI1
aI1
aI1
aI1
aI1
aI1
aI1
aI1
aI1
aI1
aI1
aI1
aI1
aI1
aI1
aI1
aI1
aI1
aI1
aI1
aI1
aI1
aa(lp11496
I0
aI1
aI1
aI1
aI1
aI1
aa(lp11497
I0
aI1
aI1
aI1
aI1
aI1
aI1
aI1
aI1
aI1
aa(lp11498
I0
aI1
aI1
aa(lp11499
I0
aI1
aI1
aI1
aI1
aI1
aI1
aI1
aI1
aI1
aI1
aI1
aI1
aI1
aI1
aI1
aI1
aa(lp11500
I0
aI1
aI1
aI1
aI1
aI1
aI1
aI1
aI1
aI1
aI1
aI1
aI1
aI1
aI1
aI1
aI1
aI1
aI1
aI1
aa(lp11501
I0
aI1
aI1
aI1
aI1
aI1
aI1
aI1
aI1
aI1
aI1
aI1
aI1
aI1
aI1
aI1
aI1
aI1
aI1
aI1
aI1
aI1
aI1
aI1
aI1
aI1
aI1
aI1
aI1
aI1
aI1
aI1
aI1
aI1
aI1
aI1
aa(lp11502
I0
aI1
aI1
aI1
aI1
aI1
aI1
aI1
aI1
aI1
aI1
aa(lp11503
I0
aI1
aI1
aI1
aI1
aI1
aI1
aI1
aa(lp11504
I0
aI1
aI1
aI1
aI1
aI1
aI1
aI1
aI1
aI1
aI1
aI1
aI1
aI1
aI1
aI1
aI1
aI1
aI1
aI1
aI1
aI1
aa(lp11505
I0
aI1
aI1
aI1
aI1
aI1
aI1
aI1
aI1
aI1
aI1
aI1
aI1
aI1
aI1
aI1
aI1
aI1
aI1
aI1
aa(lp11506
I0
aI1
aI1
aI1
aI1
aI1
aI1
aI1
aI1
aI1
aI1
aI1
aI1
aa(lp11507
I0
aI1
aI1
aI1
aI1
aI1
aI1
aI1
aI1
aI1
aI1
aa(lp11508
I0
aI1
aI1
aI1
aI1
aI1
aI1
aI1
aI1
aI1
aI1
aI1
aI1
aI1
aI1
aI1
aI1
aI1
aI1
aI1
aI1
aa(lp11509
I0
aI1
aI1
aI1
aI1
aI1
aI1
aI1
aI1
aI1
aI1
aI1
aI1
aI1
aI1
aI1
aI1
aI1
aI1
aI1
aI1
aI1
aa(lp11510
I0
aI1
aI1
aI1
aI1
aI1
aa(lp11511
I0
aI1
aI1
aI1
aI1
aI1
aI1
aI1
aI1
aI1
aI1
aa(lp11512
I0
aI1
aI1
aI1
aI1
aa(lp11513
I0
aI1
aI1
aI1
aI1
aI1
aI1
aI1
aI1
aI1
aI1
aI1
aI1
aI1
aI1
aa(lp11514
I0
aI1
aI1
aI1
aI1
aI1
aI1
aI1
aI1
aI1
aI1
aI1
aI1
aI1
aI1
aI1
aI1
aI1
aI1
aI1
aI1
aI1
aa(lp11515
I0
aI1
aI1
aI1
aI1
aI1
aI1
aI1
aI1
aa(lp11516
I0
aI1
aI1
aI1
aI1
aI1
aI1
aI1
aI1
aI1
aI1
aI1
aI1
aI1
aI1
aI1
aI1
aI1
aI1
aI1
aI1
aI1
aI1
aI1
aI1
aI1
aI1
aa(lp11517
I0
aI1
aI1
aI1
aI1
aI1
aI1
aI1
aI1
aI1
aI1
aI1
aI1
aa(lp11518
I0
aI1
aI1
aI1
aI1
aI1
aI1
aa(lp11519
I0
aI1
aI1
aI1
aI1
aI1
aI1
aI1
aI1
aa(lp11520
I0
aI1
aI1
aI1
aI1
aI1
aI1
aI1
aI1
aI1
aI1
aI1
aI1
aI1
aa(lp11521
I0
aI1
aI1
aI1
aI1
aI1
aI1
aI1
aI1
aa(lp11522
I0
aI1
aI1
aI1
aI1
aI1
aI1
aI1
aI1
aI1
aI1
aa(lp11523
I0
aI1
aI1
aI1
aI1
aI1
aI1
aI1
aI1
aI1
aI1
aI1
aI1
aa(lp11524
I0
aI1
aI1
aI1
aI1
aI1
aI1
aI1
aI1
aI1
aI1
aI1
aI1
aI1
aa(lp11525
I0
aI1
aI1
aI1
aI1
aI1
aI1
aI1
aI1
aI1
aI1
aI1
aI1
aa(lp11526
I0
aI1
aI1
aI1
aI1
aI1
aa(lp11527
I0
aI1
aI1
aI1
aI1
aI1
aI1
aa(lp11528
I0
aI1
aI1
aI1
aI1
aI1
aI1
aa(lp11529
I0
aI1
aI1
aI1
aI1
aI1
aI1
aI1
aI1
aI1
aa(lp11530
I0
aI1
aI0
aI1
aI1
aI1
aI1
aI1
aI1
aI1
aI1
aI1
aa(lp11531
I0
aI1
aI1
aI1
aI1
aI1
aI1
aI1
aI1
aI1
aI1
aI1
aI1
aI1
aI1
aI1
aI1
aI1
aI1
aI1
aI1
aI1
aI1
aI1
aI1
aI1
aI1
aI1
aI1
aI1
aI1
aI1
aa(lp11532
I0
aI1
aI1
aI1
aI1
aI1
aI1
aI1
aI1
aI1
aI1
aa(lp11533
I0
aI1
aI1
aI1
aI1
aI1
aI1
aI1
aI1
aI1
aI1
aI1
aI1
aI1
aI1
aa(lp11534
I0
aI1
aI1
aI1
aI1
aI1
aI1
aI1
aI1
aI1
aI1
aI1
aI1
aI1
aI1
aI1
aI1
aI1
aI1
aI1
aI1
aI1
aI1
aI1
aI1
aI1
aI1
aa(lp11535
I0
aI1
aI1
aI1
aI1
aI1
aI1
aa(lp11536
I0
aI1
aI1
aI1
aI1
aI1
aI1
aI1
aI1
aI1
aI1
aa(lp11537
I0
aI1
aI1
aI1
aI1
aI1
aI1
aI1
aI1
aI1
aI1
aI1
aI1
aa(lp11538
I0
aI1
aI1
aI1
aI1
aI1
aI1
aI1
aI1
aI1
aI1
aI1
aa(lp11539
I0
aI1
aI1
aI1
aI1
aI1
aI1
aI1
aI1
aI1
aI1
aI1
aI1
aI1
aa(lp11540
I0
aI1
aI1
aI1
aI1
aI1
aI1
aI1
aI1
aI1
aI1
aI1
aI1
aI1
aI1
aI1
aI1
aa(lp11541
I0
aI1
aI1
aI1
aI1
aI1
aI1
aa(lp11542
I0
aI1
aI1
aI1
aI1
aI1
aa(lp11543
I0
aI1
aI1
aI1
aI1
aI1
aI1
aI1
aI1
aI1
aI1
aI1
aI1
aI1
aI1
aI1
aI1
aI1
aI1
aa(lp11544
I0
aI1
aI1
aI1
aI1
aI1
aI1
aI1
aI1
aI1
aI1
aI1
aa(lp11545
I0
aI1
aI1
aI1
aI1
aI1
aI1
aa(lp11546
I0
aI1
aI1
aI1
aI1
aI1
aI1
aI1
aI1
aI1
aI1
aI1
aI1
aI1
aI1
aI1
aI1
aI1
aI1
aa(lp11547
I0
aI1
aI1
aI1
aI1
aI1
aI1
aI1
aI1
aI1
aa(lp11548
I0
aI1
aI1
aI1
aI1
aI1
aI1
aI1
aI1
aI1
aI1
aI1
aI1
aI1
aI1
aI1
aI1
aI1
aI1
aI1
aI1
aI1
aI1
aI1
aI1
aI1
aI1
aI1
aI1
aI1
aI1
aI1
aI1
aI1
aI1
aI1
aa(lp11549
I0
aI1
aI1
aI1
aI1
aI1
aI1
aI1
aI1
aI1
aI1
aI1
aI1
aI1
aI1
aa(lp11550
I0
aI1
aI1
aI1
aI1
aI1
aI1
aI1
aI1
aI1
aI1
aI1
aa(lp11551
I0
aI1
aI1
aI1
aI1
aI1
aI1
aI1
aI1
aI1
aa(lp11552
I0
aI1
aI1
aI1
aI1
aI1
aI1
aI1
aa(lp11553
I0
aI1
aI1
aI1
aI1
aI1
aI1
aI1
aI1
aI1
aI1
aa(lp11554
I0
aI1
aI1
aI1
aI1
aI1
aI1
aI1
aI1
aI1
aI1
aI1
aI1
aI1
aI1
aI1
aI1
aI1
aI1
aI1
aa(lp11555
I0
aI1
aI1
aI1
aI1
aI1
aI1
aI1
aI1
aI1
aI1
aa(lp11556
I0
aI1
aI1
aI1
aI1
aI1
aI1
aI1
aI1
aI1
aa(lp11557
I0
aI1
aI1
aI1
aa(lp11558
I0
aI1
aI1
aI1
aI1
aI1
aI1
aI1
aI1
aI1
aI1
aI1
aI1
aI1
aI1
aI1
aa(lp11559
I0
aI1
aI1
aI1
aI1
aI1
aI1
aI1
aI1
aI1
aI1
aI1
aI1
aI1
aa(lp11560
I0
aI1
aI1
aI1
aI1
aI1
aI1
aI1
aI1
aI1
aI1
aI1
aI1
aa(lp11561
I0
aI1
aI1
aI1
aI1
aI1
aI1
aI1
aI1
aI1
aI1
aa(lp11562
I0
aI1
aI1
aI1
aI1
aI1
aI1
aI1
aI1
aI1
aI1
aI1
aI1
aI1
aI1
aI1
aI1
aI1
aI1
aI1
aI1
aI1
aaa(lp11563
(lp11564
I5
aI0
aI3
aI2
aI4
aI1
aa(lp11565
I7
aI22
aI0
aI16
aI9
aI12
aI2
aI14
aI20
aI11
aI18
aI1
aI5
aI4
aI15
aI17
aI21
aI10
aI6
aI8
aI19
aI3
aI13
aa(lp11566
I17
aI4
aI7
aI9
aI10
aI14
aI0
aI5
aI6
aI1
aI15
aI3
aI13
aI2
aI12
aI11
aI8
aI16
aa(lp11567
I6
aI0
aI3
aI2
aI4
aI5
aI1
aa(lp11568
I14
aI0
aI3
aI12
aI4
aI9
aI8
aI2
aI1
aI7
aI13
aI10
aI11
aI6
aI5
aa(lp11569
I13
aI0
aI7
aI6
aI8
aI9
aI4
aI2
aI11
aI5
aI12
aI3
aI10
aI1
aa(lp11570
I12
aI33
aI0
aI19
aI31
aI2
aI10
aI17
aI29
aI25
aI14
aI15
aI7
aI22
aI6
aI24
aI8
aI3
aI27
aI20
aI23
aI4
aI18
aI30
aI11
aI9
aI16
aI28
aI13
aI32
aI26
aI21
aI5
aI1
aa(lp11571
I1
aI8
aI0
aI6
aI3
aI2
aI5
aI4
aI7
aa(lp11572
I6
aI3
aI5
aI1
aI2
aI4
aI0
aa(lp11573
I6
aI1
aI4
aI2
aI3
aI0
aI5
aa(lp11574
I2
aI5
aI14
aI7
aI6
aI13
aI1
aI4
aI11
aI10
aI9
aI3
aI12
aI8
aI0
aa(lp11575
I6
aI15
aI0
aI10
aI2
aI5
aI13
aI8
aI3
aI9
aI11
aI7
aI1
aI4
aI14
aI12
aa(lp11576
I15
aI8
aI9
aI12
aI4
aI1
aI6
aI13
aI2
aI14
aI11
aI10
aI7
aI5
aI3
aI0
aa(lp11577
I10
aI0
aI8
aI4
aI2
aI6
aI3
aI7
aI9
aI5
aI1
aa(lp11578
I13
aI19
aI0
aI4
aI14
aI8
aI18
aI10
aI3
aI5
aI11
aI15
aI6
aI1
aI12
aI16
aI7
aI9
aI17
aI2
aa(lp11579
I5
aI0
aI1
aI2
aI3
aI4
aa(lp11580
I14
aI2
aI0
aI7
aI8
aI9
aI4
aI12
aI10
aI5
aI13
aI11
aI3
aI1
aI6
aa(lp11581
I20
aI0
aI19
aI16
aI8
aI3
aI4
aI6
aI14
aI17
aI13
aI7
aI1
aI5
aI18
aI9
aI15
aI12
aI11
aI10
aI2
aa(lp11582
I10
aI3
aI4
aI8
aI0
aI6
aI7
aI1
aI2
aI9
aI5
aa(lp11583
I17
aI0
aI6
aI10
aI7
aI5
aI1
aI11
aI14
aI15
aI3
aI12
aI4
aI8
aI9
aI16
aI13
aI2
aa(lp11584
I14
aI0
aI9
aI1
aI4
aI10
aI3
aI7
aI12
aI6
aI8
aI13
aI5
aI2
aI11
aa(lp11585
I5
aI0
aI3
aI4
aI1
aI2
aa(lp11586
I9
aI3
aI14
aI0
aI13
aI4
aI1
aI5
aI10
aI6
aI12
aI7
aI11
aI8
aI2
aa(lp11587
I8
aI0
aI1
aI6
aI5
aI2
aI4
aI7
aI3
aa(lp11588
I9
aI0
aI6
aI8
aI2
aI1
aI4
aI7
aI5
aI3
aa(lp11589
I13
aI18
aI26
aI0
aI24
aI9
aI7
aI5
aI19
aI14
aI4
aI16
aI22
aI2
aI11
aI10
aI15
aI20
aI3
aI21
aI12
aI25
aI23
aI1
aI17
aI8
aI6
aa(lp11590
I7
aI0
aI2
aI4
aI5
aI3
aI6
aI1
aa(lp11591
I7
aI0
aI5
aI3
aI6
aI1
aI4
aI2
aa(lp11592
I6
aI0
aI1
aI4
aI3
aI5
aI2
aa(lp11593
I14
aI0
aI2
aI4
aI11
aI5
aI1
aI12
aI7
aI8
aI3
aI13
aI10
aI9
aI6
aa(lp11594
I3
aI11
aI0
aI6
aI10
aI4
aI1
aI8
aI5
aI9
aI7
aI2
aa(lp11595
I13
aI10
aI17
aI7
aI0
aI1
aI3
aI12
aI9
aI4
aI6
aI11
aI15
aI8
aI2
aI16
aI14
aI5
aa(lp11596
I16
aI22
aI4
aI32
aI1
aI3
aI0
aI10
aI29
aI9
aI26
aI11
aI23
aI18
aI15
aI27
aI7
aI20
aI30
aI19
aI25
aI5
aI24
aI13
aI6
aI17
aI21
aI2
aI31
aI14
aI28
aI12
aI8
aa(lp11597
I5
aI0
aI2
aI3
aI1
aI4
aa(lp11598
I9
aI0
aI2
aI3
aI7
aI5
aI4
aI8
aI6
aI1
aa(lp11599
I2
aI0
aI1
aa(lp11600
I16
aI15
aI0
aI10
aI6
aI13
aI4
aI12
aI8
aI2
aI1
aI5
aI14
aI9
aI11
aI7
aI3
aa(lp11601
I19
aI17
aI11
aI0
aI2
aI10
aI3
aI5
aI16
aI9
aI15
aI13
aI7
aI1
aI18
aI12
aI14
aI8
aI6
aI4
aa(lp11602
I11
aI28
aI4
aI35
aI0
aI30
aI5
aI12
aI31
aI26
aI13
aI8
aI19
aI33
aI7
aI9
aI21
aI25
aI2
aI20
aI29
aI15
aI34
aI23
aI10
aI22
aI3
aI14
aI32
aI27
aI16
aI24
aI6
aI18
aI17
aI1
aa(lp11603
I10
aI0
aI9
aI7
aI4
aI8
aI3
aI1
aI6
aI5
aI2
aa(lp11604
I7
aI3
aI1
aI0
aI5
aI2
aI6
aI4
aa(lp11605
I9
aI21
aI0
aI19
aI2
aI10
aI1
aI15
aI16
aI11
aI18
aI7
aI17
aI13
aI6
aI8
aI14
aI20
aI5
aI12
aI4
aI3
aa(lp11606
I2
aI8
aI19
aI0
aI11
aI17
aI6
aI12
aI10
aI3
aI16
aI9
aI14
aI5
aI1
aI18
aI7
aI15
aI4
aI13
aa(lp11607
I12
aI0
aI1
aI5
aI10
aI6
aI9
aI7
aI3
aI4
aI11
aI8
aI2
aa(lp11608
I10
aI0
aI6
aI1
aI7
aI2
aI8
aI4
aI9
aI5
aI3
aa(lp11609
I2
aI0
aI20
aI17
aI8
aI5
aI13
aI12
aI3
aI16
aI10
aI7
aI18
aI4
aI14
aI19
aI15
aI11
aI9
aI6
aI1
aa(lp11610
I21
aI2
aI8
aI0
aI1
aI10
aI17
aI6
aI13
aI9
aI16
aI14
aI3
aI5
aI12
aI7
aI18
aI19
aI20
aI15
aI11
aI4
aa(lp11611
I5
aI0
aI1
aI3
aI2
aI4
aa(lp11612
I10
aI0
aI4
aI9
aI1
aI2
aI5
aI8
aI7
aI6
aI3
aa(lp11613
I4
aI0
aI2
aI1
aI3
aa(lp11614
I14
aI0
aI9
aI4
aI5
aI10
aI3
aI8
aI7
aI12
aI13
aI11
aI6
aI2
aI1
aa(lp11615
I21
aI16
aI0
aI12
aI14
aI19
aI8
aI6
aI20
aI11
aI10
aI4
aI9
aI3
aI17
aI7
aI18
aI1
aI5
aI15
aI13
aI2
aa(lp11616
I8
aI2
aI3
aI0
aI4
aI6
aI7
aI5
aI1
aa(lp11617
I26
aI24
aI0
aI21
aI12
aI8
aI15
aI19
aI17
aI10
aI7
aI22
aI5
aI14
aI11
aI6
aI2
aI20
aI18
aI25
aI9
aI3
aI23
aI16
aI13
aI4
aI1
aa(lp11618
I12
aI6
aI0
aI2
aI5
aI3
aI1
aI9
aI10
aI7
aI11
aI8
aI4
aa(lp11619
I6
aI0
aI3
aI1
aI4
aI5
aI2
aa(lp11620
I8
aI5
aI1
aI4
aI6
aI2
aI7
aI3
aI0
aa(lp11621
I3
aI13
aI0
aI1
aI4
aI12
aI8
aI10
aI5
aI7
aI11
aI9
aI6
aI2
aa(lp11622
I8
aI7
aI0
aI6
aI1
aI3
aI4
aI2
aI5
aa(lp11623
I10
aI3
aI0
aI5
aI2
aI7
aI6
aI8
aI9
aI4
aI1
aa(lp11624
I12
aI6
aI1
aI8
aI2
aI10
aI5
aI11
aI7
aI3
aI0
aI9
aI4
aa(lp11625
I13
aI0
aI5
aI11
aI1
aI6
aI10
aI8
aI2
aI12
aI7
aI3
aI9
aI4
aa(lp11626
I12
aI0
aI3
aI4
aI2
aI8
aI6
aI10
aI11
aI1
aI9
aI7
aI5
aa(lp11627
I3
aI5
aI0
aI1
aI4
aI2
aa(lp11628
I6
aI0
aI4
aI1
aI3
aI5
aI2
aa(lp11629
I6
aI0
aI4
aI2
aI1
aI5
aI3
aa(lp11630
I9
aI0
aI6
aI3
aI7
aI1
aI2
aI5
aI8
aI4
aa(lp11631
I11
aI8
aI6
aI0
aI5
aI3
aI9
aI1
aI4
aI10
aI7
aI2
aa(lp11632
I31
aI18
aI26
aI4
aI0
aI8
aI27
aI25
aI21
aI5
aI9
aI6
aI28
aI1
aI13
aI12
aI17
aI3
aI14
aI20
aI23
aI30
aI29
aI10
aI24
aI22
aI7
aI2
aI19
aI16
aI15
aI11
aa(lp11633
I2
aI10
aI5
aI3
aI1
aI8
aI7
aI0
aI4
aI9
aI6
aa(lp11634
I8
aI14
aI0
aI4
aI3
aI6
aI1
aI12
aI9
aI2
aI10
aI7
aI11
aI13
aI5
aa(lp11635
I24
aI11
aI26
aI0
aI14
aI17
aI9
aI16
aI6
aI4
aI2
aI8
aI19
aI15
aI22
aI7
aI13
aI21
aI1
aI12
aI5
aI23
aI25
aI20
aI18
aI10
aI3
aa(lp11636
I6
aI3
aI1
aI4
aI2
aI5
aI0
aa(lp11637
I10
aI0
aI4
aI8
aI2
aI7
aI6
aI5
aI9
aI3
aI1
aa(lp11638
I8
aI2
aI12
aI0
aI9
aI3
aI10
aI7
aI4
aI1
aI11
aI5
aI6
aa(lp11639
I7
aI11
aI0
aI3
aI5
aI4
aI1
aI8
aI9
aI10
aI6
aI2
aa(lp11640
I13
aI10
aI0
aI9
aI6
aI12
aI1
aI11
aI8
aI7
aI5
aI4
aI3
aI2
aa(lp11641
I16
aI7
aI0
aI14
aI3
aI5
aI9
aI10
aI13
aI6
aI1
aI12
aI11
aI4
aI15
aI2
aI8
aa(lp11642
I6
aI0
aI3
aI4
aI1
aI5
aI2
aa(lp11643
I5
aI0
aI2
aI3
aI4
aI1
aa(lp11644
I5
aI11
aI3
aI18
aI4
aI16
aI12
aI15
aI1
aI6
aI9
aI13
aI8
aI2
aI10
aI17
aI0
aI14
aI7
aa(lp11645
I8
aI11
aI0
aI3
aI1
aI4
aI6
aI9
aI10
aI7
aI2
aI5
aa(lp11646
I6
aI0
aI4
aI2
aI3
aI5
aI1
aa(lp11647
I18
aI12
aI2
aI4
aI15
aI10
aI16
aI13
aI5
aI7
aI9
aI3
aI17
aI14
aI1
aI0
aI11
aI8
aI6
aa(lp11648
I9
aI1
aI0
aI2
aI6
aI5
aI3
aI7
aI8
aI4
aa(lp11649
I35
aI0
aI11
aI25
aI27
aI7
aI15
aI32
aI20
aI33
aI12
aI5
aI16
aI8
aI3
aI9
aI29
aI13
aI22
aI19
aI2
aI18
aI24
aI23
aI30
aI4
aI14
aI34
aI28
aI31
aI26
aI21
aI17
aI10
aI6
aI1
aa(lp11650
I14
aI0
aI8
aI12
aI5
aI10
aI2
aI4
aI11
aI13
aI9
aI7
aI6
aI3
aI1
aa(lp11651
I11
aI5
aI2
aI4
aI6
aI3
aI9
aI7
aI0
aI8
aI10
aI1
aa(lp11652
I3
aI9
aI0
aI4
aI8
aI5
aI1
aI6
aI7
aI2
aa(lp11653
I7
aI3
aI1
aI5
aI4
aI6
aI2
aI0
aa(lp11654
I1
aI10
aI0
aI2
aI7
aI8
aI3
aI5
aI9
aI6
aI4
aa(lp11655
I19
aI5
aI13
aI15
aI6
aI10
aI17
aI3
aI8
aI0
aI11
aI2
aI16
aI9
aI1
aI18
aI14
aI12
aI7
aI4
aa(lp11656
I10
aI0
aI6
aI8
aI3
aI5
aI2
aI7
aI9
aI4
aI1
aa(lp11657
I1
aI9
aI3
aI8
aI4
aI0
aI2
aI6
aI7
aI5
aa(lp11658
I3
aI0
aI2
aI1
aa(lp11659
I15
aI3
aI0
aI12
aI7
aI14
aI10
aI9
aI1
aI6
aI4
aI11
aI2
aI13
aI8
aI5
aa(lp11660
I13
aI1
aI6
aI9
aI0
aI11
aI5
aI10
aI8
aI4
aI3
aI2
aI12
aI7
aa(lp11661
I12
aI0
aI6
aI10
aI5
aI4
aI2
aI9
aI7
aI1
aI11
aI8
aI3
aa(lp11662
I10
aI0
aI3
aI2
aI1
aI4
aI8
aI6
aI7
aI9
aI5
aa(lp11663
I21
aI0
aI4
aI1
aI13
aI8
aI15
aI14
aI2
aI6
aI19
aI11
aI10
aI5
aI16
aI18
aI7
aI12
aI20
aI9
aI17
aI3
aaa(lp11664
(lp11665
I1
aI4
aI2
aI3
aI0
aI5
aa(lp11666
I13
aI3
aI19
aI8
aI6
aI10
aI21
aI17
aI15
aI4
aI5
aI1
aI18
aI11
aI20
aI14
aI2
aI12
aI9
aI16
aI0
aI22
aI7
aa(lp11667
I16
aI8
aI11
aI12
aI2
aI13
aI3
aI15
aI1
aI6
aI5
aI0
aI14
aI10
aI9
aI7
aI4
aI17
aa(lp11668
I1
aI5
aI4
aI2
aI3
aI0
aI6
aa(lp11669
I5
aI6
aI11
aI10
aI13
aI7
aI1
aI2
aI8
aI9
aI4
aI12
aI3
aI0
aI14
aa(lp11670
I1
aI10
aI3
aI12
aI5
aI11
aI2
aI4
aI9
aI8
aI6
aI7
aI0
aI13
aa(lp11671
I1
aI5
aI21
aI26
aI32
aI13
aI28
aI16
aI9
aI11
aI30
aI18
aI4
aI23
aI20
aI27
aI3
aI8
aI24
aI6
aI22
aI7
aI15
aI14
aI25
aI29
aI17
aI10
aI2
aI31
aI19
aI0
aI33
aI12
aa(lp11672
I7
aI4
aI5
aI2
aI3
aI6
aI0
aI8
aI1
aa(lp11673
I0
aI4
aI2
aI1
aI5
aI3
aI6
aa(lp11674
I5
aI0
aI3
aI2
aI4
aI1
aI6
aa(lp11675
I0
aI8
aI12
aI3
aI9
aI10
aI11
aI4
aI1
aI13
aI6
aI7
aI14
aI5
aI2
aa(lp11676
I12
aI14
aI4
aI1
aI7
aI11
aI9
aI3
aI8
aI13
aI5
aI2
aI10
aI0
aI15
aI6
aa(lp11677
I0
aI3
aI5
aI7
aI10
aI11
aI14
aI2
aI13
aI6
aI1
aI4
aI12
aI9
aI8
aI15
aa(lp11678
I1
aI5
aI9
aI7
aI3
aI6
aI2
aI4
aI8
aI0
aI10
aa(lp11679
I2
aI17
aI9
aI7
aI16
aI12
aI1
aI6
aI15
aI11
aI5
aI3
aI10
aI18
aI8
aI14
aI4
aI0
aI19
aI13
aa(lp11680
I4
aI3
aI2
aI1
aI0
aI5
aa(lp11681
I6
aI1
aI3
aI11
aI13
aI5
aI10
aI12
aI4
aI9
aI8
aI7
aI0
aI2
aI14
aa(lp11682
I2
aI10
aI11
aI12
aI15
aI9
aI18
aI5
aI1
aI7
aI13
aI17
aI14
aI6
aI4
aI3
aI8
aI16
aI19
aI0
aI20
aa(lp11683
I5
aI9
aI2
aI1
aI7
aI6
aI0
aI8
aI4
aI3
aI10
aa(lp11684
I2
aI13
aI16
aI9
aI8
aI4
aI12
aI3
aI15
aI14
aI11
aI1
aI5
aI7
aI10
aI6
aI0
aI17
aa(lp11685
I11
aI2
aI5
aI13
aI8
aI6
aI12
aI7
aI3
aI10
aI4
aI1
aI9
aI0
aI14
aa(lp11686
I2
aI1
aI4
aI3
aI0
aI5
aa(lp11687
I2
aI8
aI11
aI7
aI12
aI6
aI10
aI5
aI1
aI4
aI13
aI0
aI14
aI3
aI9
aa(lp11688
I3
aI7
aI4
aI2
aI5
aI6
aI1
aI0
aI8
aa(lp11689
I3
aI5
aI7
aI4
aI1
aI2
aI8
aI6
aI0
aI9
aa(lp11690
I6
aI8
aI17
aI1
aI23
aI25
aI12
aI21
aI3
aI20
aI15
aI10
aI11
aI2
aI22
aI16
aI4
aI14
aI19
aI5
aI7
aI9
aI24
aI0
aI26
aI18
aI13
aa(lp11691
I1
aI6
aI3
aI5
aI4
aI2
aI0
aI7
aa(lp11692
I2
aI4
aI1
aI6
aI3
aI5
aI0
aI7
aa(lp11693
I2
aI5
aI3
aI4
aI1
aI0
aI6
aa(lp11694
I6
aI9
aI10
aI13
aI3
aI8
aI7
aI12
aI1
aI5
aI11
aI4
aI2
aI0
aI14
aa(lp11695
I2
aI7
aI9
aI5
aI8
aI1
aI4
aI10
aI6
aI0
aI11
aI3
aa(lp11696
I5
aI14
aI16
aI2
aI8
aI15
aI11
aI6
aI4
aI9
aI12
aI3
aI1
aI0
aI7
aI17
aI10
aI13
aa(lp11697
I8
aI12
aI28
aI14
aI31
aI2
aI21
aI17
aI6
aI13
aI24
aI5
aI25
aI19
aI30
aI20
aI7
aI27
aI15
aI18
aI23
aI11
aI26
aI9
aI29
aI10
aI0
aI3
aI1
aI32
aI4
aI22
aI16
aa(lp11698
I4
aI1
aI3
aI2
aI0
aI5
aa(lp11699
I1
aI6
aI8
aI4
aI5
aI7
aI3
aI2
aI0
aI9
aa(lp11700
I1
aI0
aI2
aa(lp11701
I3
aI7
aI11
aI9
aI14
aI5
aI1
aI2
aI8
aI12
aI4
aI13
aI6
aI10
aI0
aI15
aI16
aa(lp11702
I4
aI6
aI8
aI14
aI12
aI18
aI1
aI7
aI13
aI15
aI9
aI16
aI5
aI3
aI10
aI2
aI0
aI11
aI17
aI19
aa(lp11703
I1
aI17
aI18
aI6
aI24
aI16
aI27
aI32
aI14
aI3
aI22
aI10
aI23
aI34
aI15
aI29
aI20
aI2
aI25
aI21
aI9
aI7
aI33
aI19
aI8
aI13
aI26
aI31
aI12
aI5
aI30
aI0
aI35
aI4
aI28
aI11
aa(lp11704
I2
aI5
aI6
aI1
aI3
aI8
aI4
aI7
aI9
aI0
aI10
aa(lp11705
I4
aI6
aI2
aI5
aI0
aI1
aI3
aI7
aa(lp11706
I3
aI4
aI12
aI5
aI20
aI14
aI8
aI6
aI13
aI17
aI7
aI18
aI11
aI16
aI15
aI1
aI10
aI2
aI19
aI0
aI21
aI9
aa(lp11707
I13
aI4
aI15
aI7
aI18
aI1
aI5
aI14
aI9
aI16
aI3
aI10
aI12
aI6
aI17
aI11
aI0
aI19
aI8
aI2
aa(lp11708
I2
aI8
aI11
aI4
aI3
aI7
aI9
aI6
aI10
aI5
aI1
aI0
aI12
aa(lp11709
I3
aI5
aI9
aI4
aI8
aI2
aI7
aI1
aI6
aI0
aI10
aa(lp11710
I1
aI6
aI9
aI11
aI15
aI19
aI14
aI4
aI18
aI7
aI10
aI16
aI3
aI12
aI13
aI5
aI8
aI17
aI20
aI0
aI2
aa(lp11711
I4
aI11
aI15
aI20
aI19
aI18
aI7
aI12
aI5
aI3
aI14
aI16
aI9
aI13
aI6
aI17
aI10
aI1
aI0
aI8
aI2
aI21
aa(lp11712
I4
aI2
aI3
aI1
aI0
aI5
aa(lp11713
I3
aI6
aI7
aI8
aI5
aI2
aI1
aI9
aI4
aI0
aI10
aa(lp11714
I3
aI1
aI2
aI0
aI4
aa(lp11715
I1
aI2
aI6
aI11
aI13
aI12
aI7
aI8
aI3
aI10
aI5
aI4
aI9
aI0
aI14
aa(lp11716
I2
aI13
aI15
aI5
aI1
aI18
aI7
aI17
aI3
aI9
aI4
aI10
aI11
aI20
aI6
aI8
aI19
aI14
aI12
aI0
aI16
aI21
aa(lp11717
I1
aI5
aI7
aI6
aI4
aI0
aI3
aI2
aI8
aa(lp11718
I1
aI4
aI13
aI16
aI23
aI3
aI9
aI25
aI18
aI20
aI2
aI6
aI11
aI14
aI5
aI22
aI7
aI10
aI17
aI19
aI15
aI8
aI12
aI21
aI0
aI24
aI26
aa(lp11719
I4
aI8
aI11
aI7
aI10
aI9
aI1
aI3
aI5
aI2
aI0
aI6
aI12
aa(lp11720
I2
aI5
aI4
aI1
aI3
aI0
aI6
aa(lp11721
I0
aI3
aI7
aI2
aI6
aI4
aI1
aI5
aI8
aa(lp11722
I2
aI6
aI9
aI11
aI7
aI5
aI10
aI8
aI12
aI4
aI1
aI0
aI13
aI3
aa(lp11723
I5
aI2
aI4
aI3
aI1
aI6
aI0
aI7
aI8
aa(lp11724
I1
aI4
aI9
aI8
aI6
aI7
aI2
aI5
aI0
aI3
aI10
aa(lp11725
I4
aI9
aI0
aI3
aI7
aI11
aI5
aI10
aI2
aI8
aI1
aI6
aI12
aa(lp11726
I4
aI9
aI3
aI7
aI12
aI2
aI8
aI10
aI6
aI1
aI11
aI5
aI0
aI13
aa(lp11727
I5
aI7
aI9
aI1
aI11
aI10
aI6
aI8
aI2
aI4
aI3
aI0
aI12
aa(lp11728
I2
aI4
aI1
aI0
aI5
aI3
aa(lp11729
I2
aI5
aI3
aI1
aI4
aI0
aI6
aa(lp11730
I3
aI5
aI1
aI2
aI4
aI0
aI6
aa(lp11731
I4
aI8
aI5
aI2
aI1
aI7
aI3
aI6
aI0
aI9
aa(lp11732
I2
aI7
aI10
aI4
aI1
aI9
aI3
aI5
aI0
aI6
aI8
aI11
aa(lp11733
I11
aI15
aI16
aI19
aI2
aI7
aI22
aI24
aI10
aI29
aI30
aI23
aI20
aI14
aI3
aI17
aI12
aI13
aI1
aI28
aI6
aI9
aI5
aI21
aI25
aI27
aI8
aI0
aI4
aI26
aI18
aI31
aa(lp11734
I6
aI9
aI4
aI0
aI7
aI8
aI1
aI3
aI5
aI10
aI2
aa(lp11735
I5
aI13
aI11
aI7
aI10
aI2
aI9
aI12
aI1
aI6
aI3
aI4
aI0
aI14
aI8
aa(lp11736
I3
aI10
aI18
aI20
aI25
aI23
aI5
aI12
aI1
aI21
aI13
aI7
aI22
aI15
aI19
aI8
aI2
aI4
aI6
aI16
aI9
aI17
aI14
aI0
aI26
aI11
aI24
aa(lp11737
I0
aI5
aI2
aI4
aI1
aI3
aI6
aa(lp11738
I1
aI3
aI9
aI5
aI6
aI7
aI2
aI8
aI4
aI0
aI10
aa(lp11739
I6
aI5
aI11
aI1
aI4
aI7
aI10
aI3
aI9
aI0
aI12
aI2
aI8
aa(lp11740
I2
aI6
aI10
aI9
aI8
aI1
aI4
aI5
aI3
aI0
aI11
aI7
aa(lp11741
I2
aI3
aI4
aI5
aI7
aI8
aI11
aI1
aI12
aI6
aI9
aI0
aI10
aI13
aa(lp11742
I8
aI2
aI15
aI4
aI11
aI12
aI1
aI6
aI13
aI10
aI9
aI5
aI3
aI14
aI0
aI7
aI16
aa(lp11743
I2
aI5
aI1
aI4
aI3
aI0
aI6
aa(lp11744
I1
aI4
aI3
aI2
aI0
aI5
aa(lp11745
I7
aI14
aI0
aI17
aI10
aI2
aI8
aI13
aI9
aI6
aI1
aI15
aI12
aI16
aI4
aI18
aI3
aI11
aI5
aa(lp11746
I5
aI2
aI7
aI10
aI9
aI6
aI4
aI1
aI3
aI0
aI11
aI8
aa(lp11747
I1
aI5
aI3
aI2
aI4
aI0
aI6
aa(lp11748
I6
aI8
aI11
aI0
aI1
aI14
aI17
aI3
aI9
aI7
aI5
aI13
aI16
aI10
aI15
aI4
aI2
aI12
aI18
aa(lp11749
I4
aI8
aI7
aI3
aI5
aI6
aI2
aI0
aI1
aI9
aa(lp11750
I1
aI6
aI10
aI17
aI21
aI26
aI31
aI28
aI34
aI14
aI4
aI30
aI23
aI24
aI18
aI2
aI19
aI22
aI13
aI29
aI9
aI3
aI8
aI16
aI5
aI12
aI33
aI20
aI32
aI15
aI7
aI27
aI25
aI11
aI0
aI35
aa(lp11751
I1
aI3
aI6
aI7
aI9
aI13
aI11
aI4
aI2
aI10
aI5
aI12
aI8
aI0
aI14
aa(lp11752
I1
aI10
aI8
aI0
aI7
aI9
aI3
aI6
aI4
aI2
aI5
aI11
aa(lp11753
I2
aI7
aI6
aI1
aI5
aI8
aI4
aI0
aI9
aI3
aa(lp11754
I0
aI2
aI6
aI4
aI5
aI1
aI3
aI7
aa(lp11755
I4
aI6
aI9
aI5
aI3
aI8
aI7
aI2
aI0
aI10
aI1
aa(lp11756
I4
aI7
aI12
aI14
aI18
aI1
aI9
aI16
aI2
aI11
aI0
aI8
aI3
aI17
aI10
aI6
aI15
aI13
aI5
aI19
aa(lp11757
I1
aI4
aI9
aI7
aI2
aI5
aI3
aI8
aI6
aI0
aI10
aa(lp11758
I5
aI7
aI6
aI2
aI0
aI4
aI8
aI3
aI9
aI1
aa(lp11759
I1
aI2
aI0
aI3
aa(lp11760
I5
aI8
aI13
aI2
aI11
aI4
aI6
aI1
aI9
aI10
aI14
aI7
aI12
aI0
aI3
aI15
aa(lp11761
I7
aI12
aI2
aI3
aI4
aI8
aI10
aI5
aI11
aI0
aI9
aI6
aI1
aI13
aa(lp11762
I3
aI8
aI11
aI1
aI7
aI9
aI2
aI4
aI5
aI10
aI6
aI0
aI12
aa(lp11763
I5
aI9
aI7
aI6
aI8
aI4
aI1
aI2
aI3
aI0
aI10
aa(lp11764
I3
aI17
aI9
aI20
aI12
aI7
aI18
aI16
aI5
aI10
aI11
aI19
aI6
aI2
aI14
aI15
aI8
aI13
aI1
aI4
aI0
aI21
aaa.